cOrange.ensemble.forest
RandomForestClassifier
p1
((lp2
cOrange.orange
__pickleLoaderSimpleTreeClassifier
p3
(S'1 -1 { 1 2 1 10.567009 { 2 0 109 -31.5152912 } { 1 2 4 2.5 { 1 2 1 2784.68311 { 1 2 2 123.020164 { 1 2 2 103.287872 { 2 0 4 -1.85718513 } { 1 2 0 7.5 { 2 0 5 -2.63960505 } { 2 0 4 -2.00494003 } 9 -4.6445446 } 13 -6.50172997 } { 1 2 1 10.9430084 { 2 0 4 -2.5254519 } { 1 2 2 157.789001 { 1 2 0 5.5 { 2 0 3 -2.00695801 } { 2 0 6 -4.12056303 } 9 -6.12752104 } { 2 0 6 -4.72445488 } 15 -10.8519764 } 19 -13.3774281 } 32 -19.879158 } { 1 2 0 3.5 { 2 0 3 -0.274841487 } { 1 2 2 114.583801 { 2 0 22 -6.85096312 } { 1 2 0 6.5 { 1 2 2 141.310791 { 2 0 4 -1.956604 } { 0 2 3 0 { 2 0 3 -1.97624707 } { 2 0 6 -4.31474304 } 9 -6.29099035 } 13 -8.24759388 } { 1 2 1 48569.9922 { 2 0 3 -1.56826687 } { 2 0 7 -3.81375289 } 10 -5.38202 } 23 -13.6296139 } 45 -20.4805794 } 48 -20.7554188 } 80 -40.634594 } { 1 2 0 9.5 { 1 2 0 4.5 { 1 2 2 337.233856 { 1 2 2 321.887512 { 2 0 4 -3.48864007 } { 2 0 4 -3.56707191 } 8 -7.05571222 } { 1 2 1 77950.1016 { 1 2 1 26183.1172 { 2 0 3 -3.00767994 } { 2 0 6 -6.17456007 } 9 -9.18224049 } { 2 0 4 -3.68497992 } 13 -12.8672209 } 21 -19.9229317 } { 1 2 2 200.091339 { 1 2 0 8.5 { 1 2 2 120.774918 { 1 2 0 7.5 { 0 2 3 0 { 2 0 5 -1.14987803 } { 2 0 5 -0.954342008 } 10 -2.10421991 } { 2 0 6 -1.50107598 } 16 -3.6052959 } { 1 2 0 6.5 { 0 2 3 0 { 2 0 3 -1.19111598 } { 2 0 5 -2.01191306 } 8 -3.20302916 } { 0 2 3 0 { 1 2 1 16.5062256 { 2 0 3 -1.14459109 } { 1 2 2 178.894562 { 2 0 6 -2.83901572 } { 2 0 4 -2.06544995 } 10 -4.90446615 } 13 -6.04905701 } { 1 2 2 169.588852 { 2 0 3 -1.23969603 } { 2 0 10 -5.00969696 } 13 -6.24939346 } 26 -12.2984524 } 34 -15.501483 } 50 -19.1067772 } { 2 0 5 -2.43288589 } 55 -21.5396614 } { 1 2 2 253.164673 { 1 2 2 228.30574 { 2 0 22 -13.2755852 } { 2 0 18 -12.3699484 } 40 -25.6455479 } { 1 2 2 311.287598 { 1 2 1 22.5298805 { 1 2 2 278.352722 { 1 2 2 270.630676 { 2 0 3 -2.13918304 } { 2 0 4 -2.94021201 } 7 -5.07939529 } { 1 2 1 20.3295975 { 1 2 1 19.2863655 { 2 0 4 -3.196064 } { 2 0 5 -3.88550019 } 9 -7.08156395 } { 1 2 2 299.917511 { 2 0 7 -5.96648026 } { 2 0 4 -3.33035588 } 11 -9.29683685 } 20 -16.3783989 } 27 -21.4577923 } { 0 2 3 0 { 2 0 11 -8.44907093 } { 2 0 5 -3.82149577 } 16 -12.2705641 } 43 -33.7283516 } { 1 2 1 119723.055 { 1 2 2 322.277344 { 1 2 1 21.0667267 { 2 0 4 -3.43804789 } { 2 0 3 -2.67185998 } 7 -6.10990763 } { 1 2 1 22.9397411 { 2 0 4 -4.08315992 } { 2 0 4 -3.75987816 } 8 -7.84303808 } 15 -13.9529467 } { 2 0 6 -5.111022 } 21 -19.0639687 } 64 -52.7923279 } 104 -78.4378738 } 159 -99.9775009 } 180 -119.900482 } { 1 2 0 16.5 { 1 2 1 89080.7344 { 1 2 1 25500.0117 { 1 2 1 23.327528 { 1 2 2 100.644302 { 2 0 6 -1.41213 } { 1 2 2 111.564735 { 2 0 3 -0.869856 } { 2 0 4 -1.22327602 } 7 -2.09313202 } 13 -3.50526214 } { 2 0 5 -3.15784121 } 18 -6.6631031 } { 1 2 1 63650.0352 { 1 2 2 34.7843857 { 2 0 4 -0.200699598 } { 2 0 5 -0.643100023 } 9 -0.843799591 } { 1 2 0 10.5 { 2 0 4 -1.17339599 } { 1 2 0 12 { 2 0 4 -0.836579978 } { 2 0 3 -0.704751015 } 7 -1.54133105 } 11 -2.71472669 } 20 -3.55852628 } 38 -10.2216291 } { 2 0 10 -5.42121077 } 48 -15.6428366 } { 2 0 3 -2.07888007 } 51 -17.7217216 } 231 -137.622162 } 311 -178.256836 } 420 -209.771912 } '
tRp4
(dp5
S'class_var'
p6
cOrange.orange
__pickleLoaderVariable
p7
(cOrange.feature
Continuous
p8
(dp9
S'source_variable'
p10
NsS'ordered'
p11
I1
sS'var_type'
p12
I2
sS'scientific_format'
p13
I0
sS'random_generator'
p14
NsS'distributed'
p15
I0
sS'number_of_decimals'
p16
I7
sS'end_value'
p17
F0
sS'step_value'
p18
F-1
sS'default_meta_id'
p19
I0
sS'start_value'
p20
F-1
sS'attributes'
p21
(dp22
sS'adjust_decimals'
p23
I1
sS'name'
p24
S'F_3'
p25
stRp26
(dp27
S'get_value_from'
p28
NsbsS'computes_probabilities'
p29
I1
sbag3
(S'1 -1 { 1 2 2 147.244263 { 1 2 1 50824.168 { 1 2 1 43282.5898 { 1 2 2 95.3590317 { 1 2 4 1.5 { 1 2 0 4.5 { 1 2 1 2.11500001 { 1 2 2 20.9551334 { 1 2 1 1.50950956 { 1 2 2 5.776896 { 2 0 3 -0.123690099 } { 2 0 4 -0.522714019 } 7 -0.646404088 } { 0 2 3 0 { 2 0 4 -1.02590191 } { 2 0 4 -1.02590203 } 4 -1.02590191 } 11 -1.6723063 } { 0 2 3 0 { 2 0 10 -4.1838212 } { 2 0 10 -4.1838212 } 10 -4.1838212 } 21 -5.85612679 } { 1 2 2 49.2642326 { 0 2 3 0 { 2 0 5 -2.93698502 } { 2 0 5 -2.93698502 } 5 -2.93698502 } { 0 2 3 0 { 2 0 3 -2.37772417 } { 2 0 3 -2.37772417 } 3 -2.37772417 } 8 -5.31470871 } 29 -11.1708355 } { 2 0 6 -2.86764383 } 35 -14.0384798 } { 1 2 1 3.81666946 { 2 0 6 -0.429283231 } { 0 2 3 0 { 1 2 2 42.361908 { 1 2 2 23.9610214 { 2 0 5 -0.197243899 } { 1 2 1 7.53211975 { 2 0 5 -0.727518022 } { 1 2 1 4481.28809 { 2 0 5 -0.532344818 } { 2 0 4 -0.462911993 } 9 -0.995256841 } 14 -1.72277498 } 19 -1.92001879 } { 1 2 2 78.9585495 { 1 2 0 8.5 { 2 0 20 -4.52312469 } { 2 0 4 -0.428303987 } 24 -4.95142889 } { 1 2 4 2.5 { 2 0 3 -1.02782404 } { 1 2 1 13.1280651 { 2 0 3 -0.786196947 } { 2 0 5 -1.18331301 } 8 -1.96950996 } 11 -2.99733377 } 35 -7.94876289 } 54 -9.86878395 } { 1 2 0 3.5 { 2 0 3 -0.202499002 } { 1 2 2 85.1714783 { 1 2 0 4.5 { 2 0 3 -0.903225005 } { 1 2 2 77.6556778 { 1 2 2 58.8384323 { 1 2 2 45.318821 { 2 0 5 -1.07743704 } { 2 0 4 -0.731819987 } 9 -1.80925703 } { 1 2 1 30241.2656 { 2 0 5 -1.283988 } { 2 0 3 -0.523014009 } 8 -1.80700183 } 17 -3.6162591 } { 2 0 4 -1.10630488 } 21 -4.7225647 } 24 -5.62578964 } { 2 0 3 -1.05177701 } 27 -6.67756653 } 30 -6.88006544 } 84 -16.7488518 } 90 -17.1781311 } 125 -31.2166157 } { 1 2 4 2.5 { 1 2 1 15720.7393 { 1 2 2 124.11969 { 1 2 0 6.5 { 2 0 3 -1.27115405 } { 1 2 2 106.663223 { 2 0 3 -1.44432306 } { 2 0 7 -3.61604357 } 10 -5.06036711 } 13 -6.33152056 } { 2 0 4 -2.62580585 } 17 -8.95732784 } { 1 2 2 109.547935 { 2 0 6 -2.28358197 } { 2 0 7 -3.25509405 } 13 -5.53867579 } 30 -14.4960032 } { 1 2 2 121.167587 { 0 2 3 0 { 2 0 15 -4.50577688 } { 2 0 5 -1.51277506 } 20 -6.0185523 } { 0 2 3 0 { 1 2 2 125.539085 { 2 0 3 -1.10152197 } { 1 2 0 7 { 1 2 2 137.483124 { 2 0 5 -1.99225116 } { 2 0 4 -1.59817004 } 9 -3.5904212 } { 2 0 4 -1.61670804 } 13 -5.20712852 } 16 -6.30865145 } { 1 2 2 141.739227 { 2 0 7 -2.78439713 } { 2 0 3 -1.26411605 } 10 -4.04851294 } 26 -10.3571672 } 46 -16.3757153 } 76 -30.8717041 } 201 -62.0883064 } { 0 2 3 0 { 2 0 5 -2.71455503 } { 2 0 4 -2.06244588 } 9 -4.77700138 } 210 -66.8653107 } { 1 2 1 63650.0352 { 1 2 2 34.7843857 { 2 0 4 -0.200699598 } { 2 0 5 -0.643100023 } 9 -0.843799591 } { 1 2 2 100.499596 { 2 0 5 -1.07149696 } { 2 0 4 -1.24637198 } 9 -2.31786895 } 18 -3.1616683 } 228 -70.0270157 } { 0 2 3 0 { 1 2 2 235.243423 { 1 2 1 14.0249004 { 1 2 0 3.5 { 2 0 4 -2.61440802 } { 2 0 5 -3.83387232 } 9 -6.44828081 } { 1 2 4 2.5 { 1 2 2 185.260452 { 1 2 0 5.5 { 2 0 5 -3.21365404 } { 2 0 6 -4.08130026 } 11 -7.29495335 } { 2 0 4 -3.18739605 } 15 -10.4823503 } { 1 2 2 200.661346 { 1 2 2 169.588852 { 2 0 11 -4.65548038 } { 1 2 2 185.729675 { 2 0 3 -1.47191691 } { 1 2 0 9 { 2 0 3 -1.55390692 } { 2 0 4 -2.08716798 } 7 -3.64107466 } 10 -5.11299181 } 21 -9.76847363 } { 1 2 2 228.30574 { 1 2 0 9 { 1 2 1 38992.5508 { 1 2 0 6 { 2 0 5 -3.02659512 } { 2 0 5 -2.90893412 } 10 -5.93552971 } { 2 0 3 -1.90341687 } 13 -7.83894634 } { 2 0 6 -3.74782228 } 19 -11.5867691 } { 2 0 6 -3.94562697 } 25 -15.5323973 } 46 -25.300869 } 61 -35.7832108 } 70 -42.2314987 } { 1 2 0 6.5 { 1 2 1 48724.9609 { 2 0 5 -4.25986099 } { 1 2 2 338.018921 { 2 0 5 -4.25463581 } { 1 2 2 350.118774 { 2 0 4 -3.68497992 } { 2 0 8 -7.81782627 } 12 -11.5028057 } 17 -15.7574425 } 22 -20.0173073 } { 1 2 0 9.5 { 1 2 2 280.513702 { 1 2 2 253.164673 { 2 0 4 -2.92073393 } { 2 0 11 -8.31361961 } 15 -11.234354 } { 1 2 2 311.287598 { 1 2 1 18.9639359 { 2 0 4 -3.196064 } { 1 2 2 291.946106 { 2 0 4 -3.42617607 } { 1 2 1 20.661026 { 2 0 3 -2.52504206 } { 2 0 4 -3.33035588 } 7 -5.85539818 } 11 -9.2815752 } 15 -12.4776392 } { 1 2 2 326.075867 { 2 0 5 -4.84361029 } { 2 0 7 -5.96285915 } 12 -10.8064699 } 27 -23.2841091 } 42 -34.5184555 } { 2 0 3 -2.19944096 } 45 -36.7178955 } 67 -56.7352066 } 137 -98.9667053 } { 1 2 2 243.012268 { 1 2 4 2.5 { 1 2 2 167.687042 { 1 2 1 14.6562986 { 2 0 4 -2.90679693 } { 2 0 3 -2.05935287 } 7 -4.96614933 } { 1 2 0 5.5 { 2 0 4 -3.14822793 } { 2 0 4 -3.41135192 } 8 -6.55957985 } 15 -11.5257273 } { 1 2 0 7.5 { 1 2 2 202.433472 { 1 2 2 173.227264 { 2 0 4 -1.64841604 } { 2 0 3 -1.5241549 } 7 -3.17257118 } { 2 0 3 -1.90813303 } 10 -5.08070374 } { 1 2 0 8.5 { 1 2 2 213.300598 { 2 0 3 -1.71080303 } { 2 0 3 -1.98340106 } 6 -3.69420409 } { 1 2 0 10.5 { 2 0 3 -1.706388 } { 2 0 3 -1.648543 } 6 -3.35493088 } 12 -7.04913521 } 22 -12.129838 } 37 -23.6555691 } { 1 2 1 20.5170288 { 2 0 5 -4.35230494 } { 1 2 2 299.035034 { 1 2 1 22.0462456 { 2 0 3 -2.18316698 } { 1 2 0 8.5 { 2 0 3 -2.29000092 } { 2 0 4 -2.99735308 } 7 -5.28735399 } 10 -7.4705205 } { 2 0 3 -2.66773796 } 13 -10.1382589 } 18 -14.4905643 } 55 -38.1461296 } 192 -137.112823 } 420 -207.13974 } '
tRp30
(dp31
g6
g26
sg29
I1
sbag3
(S'1 -1 { 1 2 2 147.244263 { 1 2 0 8.5 { 1 2 1 2.16811037 { 1 2 2 7.87737846 { 1 2 0 3.5 { 2 0 4 -0.175932199 } { 0 2 3 0 { 2 0 3 -0.178551793 } { 2 0 3 -0.178551793 } 3 -0.178551793 } 7 -0.354484022 } { 1 2 0 5 { 1 2 0 3.5 { 1 2 2 21.4583092 { 1 2 2 16.7360725 { 2 0 4 -0.846706033 } { 0 2 3 0 { 2 0 3 -0.814291954 } { 2 0 3 -0.814291954 } 3 -0.814291954 } 7 -1.66099799 } { 1 2 1 1.74136794 { 0 2 3 0 { 2 0 3 -1.30408406 } { 2 0 3 -1.30408406 } 3 -1.30408406 } { 2 0 3 -1.00897908 } 6 -2.31306314 } 13 -3.97406077 } { 0 2 3 0 { 2 0 7 -1.51396203 } { 1 2 1 1.67451489 { 2 0 3 -0.509265006 } { 2 0 4 -1.00469697 } 7 -1.51396203 } 7 -1.51396203 } 20 -5.48802328 } { 2 0 3 -0.235161901 } 23 -5.72318506 } 30 -6.07766867 } { 1 2 1 2.87973213 { 1 2 2 37.2557411 { 1 2 1 2.50500536 { 2 0 5 -2.42047 } { 2 0 4 -1.72666597 } 9 -4.14713573 } { 0 2 3 0 { 2 0 6 -3.73526001 } { 2 0 6 -3.73526001 } 6 -3.73526001 } 15 -7.88239479 } { 2 0 145 -49.8124428 } 160 -57.6948166 } 190 -63.7724991 } { 1 2 2 74.31427 { 1 2 2 34.245018 { 2 0 6 -0.269269973 } { 1 2 1 8.46628761 { 2 0 3 -0.321227998 } { 2 0 5 -0.672991991 } 8 -0.994219959 } 14 -1.2634902 } { 1 2 0 12.5 { 2 0 17 -4.8638401 } { 2 0 3 -0.704751015 } 20 -5.56859112 } 34 -6.83208036 } 224 -70.604599 } { 1 2 0 7.5 { 1 2 0 4.5 { 1 2 4 2.5 { 2 0 3 -2.27926207 } { 2 0 16 -15.4863377 } 19 -17.7656021 } { 1 2 1 22.27495 { 1 2 0 6.5 { 1 2 1 19.6842995 { 1 2 2 264.7099 { 1 2 2 170.404999 { 1 2 0 5.5 { 2 0 3 -2.25955796 } { 2 0 6 -4.34322548 } 9 -6.60278416 } { 2 0 5 -3.95314503 } 14 -10.5559292 } { 2 0 4 -3.43804789 } 18 -13.9939785 } { 2 0 8 -5.21125603 } 26 -19.2052364 } { 2 0 32 -26.3807259 } 58 -45.5859795 } { 1 2 2 197.045746 { 1 2 4 2.5 { 0 2 3 4.55954494e-41 { 1 2 2 160.753723 { 2 0 3 -1.84135699 } { 2 0 3 -2.08093596 } 6 -3.92229295 } { 2 0 4 -2.668962 } 10 -6.59125471 } { 1 2 2 183.531143 { 2 0 7 -3.25600004 } { 2 0 5 -2.57699299 } 12 -5.83299255 } 22 -12.4242477 } { 1 2 0 5.5 { 1 2 2 307.535767 { 2 0 6 -4.7379961 } { 2 0 6 -5.36115026 } 12 -10.0991468 } { 0 2 3 0 { 1 2 0 6.5 { 2 0 3 -2.59215808 } { 2 0 6 -4.70656538 } 9 -7.2987237 } { 1 2 2 236.124802 { 2 0 3 -1.99527407 } { 1 2 1 51043.8828 { 2 0 5 -3.86223412 } { 2 0 3 -2.30047512 } 8 -6.16270924 } 11 -8.15798378 } 20 -15.4567041 } 32 -25.5558434 } 54 -37.9800987 } 112 -83.5660477 } 131 -101.331596 } { 2 0 65 -39.3222046 } 196 -140.653839 } 420 -211.258514 } '
tRp32
(dp33
g6
g26
sg29
I1
sbag3
(S'1 -1 { 1 2 2 119.076523 { 1 2 1 1.78366601 { 1 2 0 2.5 { 2 0 5 -0.435225397 } { 0 2 3 4.55954494e-41 { 2 0 4 -0.176246002 } { 2 0 5 -0.185709998 } 9 -0.36195603 } 14 -0.797181249 } { 1 2 4 1.5 { 1 2 1 2.98749399 { 1 2 2 25.1877823 { 2 0 5 -1.32527494 } { 1 2 2 33.6387405 { 2 0 3 -1.21991098 } { 0 2 3 4.55954494e-41 { 2 0 3 -1.481457 } { 2 0 3 -1.481457 } 3 -1.481457 } 6 -2.70136786 } 11 -4.0266428 } { 2 0 3 -2.14053917 } 14 -6.16718149 } { 1 2 2 49.5036163 { 1 2 2 38.4137726 { 1 2 1 7.53211975 { 1 2 2 23.409977 { 2 0 6 -0.399194121 } { 2 0 4 -0.609004021 } 10 -1.00819814 } { 1 2 4 2.5 { 2 0 4 -0.348523378 } { 0 2 3 0 { 1 2 0 9.5 { 2 0 3 -0.186098695 } { 2 0 4 -0.200699598 } 7 -0.386798322 } { 2 0 4 -0.236273617 } 11 -0.623071909 } 15 -0.971595287 } 25 -1.97979403 } { 1 2 1 8.91389084 { 2 0 4 -0.616588652 } { 2 0 6 -0.809085011 } 10 -1.4256736 } 35 -3.40546679 } { 1 2 2 95.3590317 { 1 2 0 6.5 { 1 2 4 2.5 { 2 0 24 -6.83577967 } { 1 2 0 5.5 { 2 0 5 -1.36948299 } { 2 0 6 -1.19766796 } 11 -2.56715107 } 35 -9.40293026 } { 1 2 2 83.430481 { 1 2 1 7.97256947 { 2 0 5 -0.535380006 } { 1 2 4 2.5 { 2 0 5 -1.21905994 } { 1 2 1 9.29663658 { 2 0 4 -0.928452015 } { 1 2 2 79.8097382 { 1 2 2 72.8807068 { 2 0 5 -0.941226959 } { 2 0 4 -0.65526402 } 9 -1.59649086 } { 2 0 3 -0.627434969 } 12 -2.22392583 } 16 -3.15237808 } 21 -4.37143803 } 26 -4.90681839 } { 2 0 9 -2.14460897 } 35 -7.05142784 } 70 -16.4543552 } { 1 2 1 6.01305676 { 2 0 5 -1.55058503 } { 1 2 2 105.57019 { 1 2 1 16543.8965 { 1 2 1 11.3161125 { 2 0 3 -1.27115405 } { 2 0 3 -1.46651101 } 6 -2.73766518 } { 2 0 3 -1.23149705 } 9 -3.96916246 } { 1 2 0 7.5 { 2 0 3 -1.16975904 } { 0 2 3 0 { 2 0 7 -2.27543998 } { 2 0 5 -1.47243309 } 12 -3.74787283 } 15 -4.91763163 } 24 -8.88679409 } 29 -10.4373751 } 99 -26.8917484 } 134 -30.2972107 } 148 -36.4643822 } 162 -37.2615814 } { 1 2 1 14.6210842 { 1 2 1 9.33660698 { 1 2 1 7.56862402 { 2 0 3 -1.21666503 } { 2 0 4 -1.52769601 } 7 -2.74436092 } { 1 2 2 144.895813 { 1 2 4 2.5 { 0 2 3 0 { 1 2 2 128.496353 { 2 0 5 -2.99317288 } { 2 0 5 -3.34415412 } 10 -6.33732653 } { 2 0 5 -3.30653119 } 15 -9.64385891 } { 1 2 2 133.105621 { 2 0 3 -1.11062098 } { 1 2 0 7 { 2 0 5 -1.96133006 } { 2 0 3 -1.21253109 } 8 -3.17386127 } 11 -4.284482 } 26 -13.9283428 } { 1 2 2 151.6828 { 2 0 3 -2.13709497 } { 0 2 3 4.55954494e-41 { 2 0 3 -2.23525286 } { 2 0 3 -2.23525286 } 3 -2.23525286 } 6 -4.37234783 } 32 -18.3006878 } 39 -21.0450459 } { 1 2 0 4.5 { 1 2 4 2.5 { 0 2 3 0 { 2 0 3 -1.78169298 } { 2 0 3 -1.78169298 } 3 -1.78169298 } { 1 2 0 3.5 { 2 0 4 -4.17023993 } { 1 2 1 29457.2168 { 2 0 5 -5.01280022 } { 0 2 3 0 { 2 0 3 -2.76373482 } { 2 0 3 -2.70478106 } 6 -5.46851635 } 11 -10.4813156 } 15 -14.6515541 } 18 -16.4332466 } { 1 2 2 231.531052 { 1 2 0 5.5 { 1 2 1 14.9107513 { 2 0 3 -2.74250698 } { 1 2 2 200.70578 { 1 2 1 39466.6406 { 2 0 3 -1.89720106 } { 2 0 5 -3.58112383 } 8 -5.47832537 } { 2 0 3 -1.81595707 } 11 -7.29428244 } 14 -10.0367889 } { 1 2 2 197.615753 { 1 2 1 16.6215935 { 2 0 5 -3.38881683 } { 1 2 0 11.5 { 2 0 56 -27.2421131 } { 2 0 4 -1.46529996 } 60 -28.7074261 } 65 -32.096241 } { 1 2 2 201.630737 { 2 0 3 -2.55851388 } { 1 2 1 88501.8438 { 0 2 3 4.55954494e-41 { 2 0 17 -9.98897171 } { 1 2 2 221.451996 { 2 0 5 -2.87479496 } { 2 0 4 -2.38709593 } 9 -5.26189137 } 26 -15.250864 } { 1 2 0 9 { 2 0 5 -3.27806497 } { 2 0 3 -1.87391102 } 8 -5.15197611 } 34 -20.402832 } 37 -22.9613476 } 102 -55.0575867 } 116 -65.0943909 } { 1 2 2 275.636536 { 1 2 2 253.164673 { 1 2 0 14.5 { 2 0 17 -12.1260338 } { 2 0 4 -2.7718401 } 21 -14.8978729 } { 1 2 0 6.5 { 2 0 4 -3.13547611 } { 0 2 3 4.55954494e-41 { 1 2 1 22.1786003 { 2 0 6 -4.32234955 } { 2 0 6 -4.602705 } 12 -8.92505455 } { 2 0 4 -2.97977114 } 16 -11.9048252 } 20 -15.0403023 } 41 -29.9381676 } { 1 2 2 300.502625 { 1 2 1 25.5121956 { 0 2 3 0 { 1 2 1 20.3295975 { 2 0 6 -4.70643234 } { 2 0 6 -5.15881586 } 12 -9.86524963 } { 2 0 4 -3.2915678 } 16 -13.1568174 } { 0 2 3 4.55954494e-41 { 2 0 4 -3.04777598 } { 2 0 4 -3.1737268 } 8 -6.22150326 } 24 -19.378315 } { 1 2 0 7.5 { 1 2 1 19.7031898 { 1 2 1 19.4439545 { 2 0 4 -3.49588394 } { 2 0 3 -2.57853603 } 7 -6.0744195 } { 1 2 1 21.9613686 { 2 0 3 -2.87416887 } { 1 2 0 5.5 { 2 0 3 -2.68057489 } { 2 0 3 -2.736691 } 6 -5.41726637 } 9 -8.29143524 } 16 -14.3658552 } { 2 0 4 -3.40734792 } 20 -17.7732048 } 44 -37.1515121 } 85 -67.0896835 } 201 -132.184021 } 219 -148.617279 } 258 -169.662399 } 420 -206.923965 } '
tRp34
(dp35
g6
g26
sg29
I1
sbag3
(S'1 -1 { 1 2 2 147.244263 { 1 2 2 95.3590317 { 1 2 2 37.5797768 { 0 2 3 0 { 1 2 1 6.1655941 { 1 2 2 6.86952114 { 2 0 3 -0.132184505 } { 2 0 3 -0.206938714 } 6 -0.339123219 } { 1 2 0 6.5 { 2 0 4 -0.495060891 } { 2 0 3 -0.174240708 } 7 -0.669301569 } 13 -1.00842488 } { 1 2 4 1.5 { 1 2 2 10.9915838 { 1 2 2 7.87737846 { 2 0 4 -0.26710549 } { 2 0 3 -0.494076967 } 7 -0.761182487 } { 1 2 1 1.75515997 { 2 0 5 -1.26949906 } { 1 2 2 21.9648819 { 1 2 2 18.2462044 { 2 0 3 -0.756942987 } { 2 0 3 -0.852498055 } 6 -1.60944092 } { 2 0 4 -1.47388303 } 10 -3.08332443 } 15 -4.35282278 } 22 -5.11400557 } { 1 2 0 5.5 { 2 0 9 -0.650197864 } { 2 0 3 -0.354676902 } 12 -1.00487471 } 34 -6.1188798 } 47 -7.1273036 } { 1 2 1 3.49673223 { 1 2 1 2.08782077 { 2 0 4 -1.6395793 } { 1 2 1 2.87108493 { 2 0 4 -2.42218304 } { 2 0 5 -3.5544529 } 9 -5.97663546 } 13 -7.61621475 } { 0 2 3 4.55954494e-41 { 1 2 0 6.5 { 1 2 1 20166.3672 { 1 2 1 7.31681347 { 2 0 6 -1.56431293 } { 1 2 2 55.9727097 { 2 0 3 -0.668820024 } { 2 0 7 -2.25975204 } 10 -2.92857218 } 16 -4.49288559 } { 2 0 4 -0.861297965 } 20 -5.3541832 } { 1 2 1 32745.6035 { 1 2 0 10.5 { 1 2 1 10.2887192 { 2 0 6 -1.48469591 } { 2 0 4 -0.868078947 } 10 -2.35277486 } { 2 0 4 -0.544372022 } 14 -2.89714718 } { 1 2 2 60.8418961 { 2 0 3 -0.453574002 } { 1 2 1 40244.0898 { 2 0 4 -0.65526402 } { 2 0 4 -0.834825993 } 8 -1.49008989 } 11 -1.94366395 } 25 -4.84081125 } 45 -10.194994 } { 1 2 0 6.5 { 1 2 2 62.593956 { 2 0 5 -1.12376499 } { 1 2 2 86.2908325 { 1 2 1 6.52909279 { 2 0 5 -1.36948299 } { 2 0 4 -1.25680602 } 9 -2.62628889 } { 2 0 3 -1.04342198 } 12 -3.66971064 } 17 -4.79347563 } { 1 2 1 7.97256947 { 2 0 4 -0.428303987 } { 1 2 2 60.4831352 { 2 0 4 -0.657096982 } { 1 2 1 20242.1836 { 2 0 3 -0.730988979 } { 2 0 4 -0.860597968 } 7 -1.59158707 } 11 -2.24868393 } 15 -2.67698789 } 32 -7.47046423 } 77 -17.6654644 } 90 -25.2816734 } 137 -32.4089775 } { 1 2 4 2.5 { 1 2 2 120.23436 { 1 2 2 99.7005463 { 2 0 4 -1.53339994 } { 1 2 1 15718.8408 { 2 0 5 -2.435076 } { 2 0 6 -2.60397387 } 11 -5.0390501 } 15 -6.57245016 } { 1 2 0 6.5 { 0 2 3 4.55954494e-41 { 2 0 5 -3.16393089 } { 2 0 5 -2.93009901 } 10 -6.09402943 } { 1 2 0 7.5 { 1 2 1 23055.084 { 2 0 4 -2.19816804 } { 2 0 3 -1.60698104 } 7 -3.80514908 } { 2 0 5 -2.54456687 } 12 -6.34971619 } 22 -12.4437466 } 37 -19.0161953 } { 2 0 36 -12.8210154 } 73 -31.8372059 } 210 -64.2462082 } { 1 2 1 18.2791214 { 1 2 0 7.5 { 2 0 21 -15.3819618 } { 2 0 10 -4.81532383 } 31 -20.1972866 } { 1 2 2 253.164673 { 1 2 4 2.5 { 1 2 1 39466.6406 { 2 0 7 -4.41089916 } { 1 2 1 47940.1641 { 2 0 6 -4.37962008 } { 2 0 6 -4.25378084 } 12 -8.63340187 } 19 -13.0443001 } { 1 2 2 189.770279 { 1 2 1 23.3770599 { 1 2 2 183.531143 { 2 0 5 -2.46245599 } { 2 0 3 -1.56354594 } 8 -4.02600193 } { 1 2 0 7 { 2 0 3 -1.22363305 } { 2 0 6 -2.58805227 } 9 -3.81168556 } 17 -7.83768702 } { 1 2 0 6.5 { 1 2 2 224.265015 { 2 0 6 -3.42730808 } { 2 0 4 -2.60562801 } 10 -6.0329361 } { 1 2 1 29.6129265 { 1 2 1 28.3633347 { 1 2 1 23.6399765 { 2 0 9 -5.62240314 } { 2 0 6 -4.11791611 } 15 -9.7403183 } { 2 0 3 -1.69154692 } 18 -11.4318638 } { 1 2 2 231.032471 { 1 2 2 224.196747 { 1 2 0 9 { 2 0 4 -2.36876392 } { 2 0 8 -4.99709654 } 12 -7.36586094 } { 2 0 5 -3.27806497 } 17 -10.6439257 } { 1 2 2 241.619675 { 2 0 9 -6.55813694 } { 2 0 3 -2.22389984 } 12 -8.78203678 } 29 -19.4259586 } 47 -30.857832 } 57 -36.8907585 } 74 -44.7284622 } 93 -57.7727318 } { 1 2 0 4.5 { 1 2 2 337.233856 { 1 2 0 3.5 { 2 0 4 -3.48864007 } { 2 0 4 -3.56707191 } 8 -7.05571222 } { 2 0 11 -10.6199856 } 19 -17.6756935 } { 1 2 2 300.502625 { 1 2 1 20.9579163 { 1 2 1 20.3295975 { 2 0 5 -3.97316408 } { 2 0 4 -3.46528006 } 9 -7.43844461 } { 1 2 1 21.9082909 { 2 0 5 -3.60928917 } { 0 2 3 4.55954494e-41 { 1 2 2 259.632202 { 2 0 4 -3.06331396 } { 1 2 1 25.6501503 { 2 0 6 -4.82901192 } { 2 0 7 -5.41087008 } 13 -10.2398825 } 17 -13.3031979 } { 1 2 0 7.5 { 2 0 6 -4.80651808 } { 2 0 4 -3.03182983 } 10 -7.83834791 } 27 -21.1415443 } 32 -24.7508316 } 41 -32.18927 } { 1 2 1 19.7031898 { 2 0 7 -6.04550123 } { 1 2 0 6.5 { 2 0 5 -4.59147692 } { 2 0 14 -12.5495014 } 19 -17.1409779 } 26 -23.1864815 } 67 -55.3757439 } 86 -73.051445 } 179 -130.824203 } 210 -151.021484 } 420 -215.267807 } '
tRp36
(dp37
g6
g26
sg29
I1
sbag3
(S'1 -1 { 1 2 2 147.244263 { 0 2 3 0 { 1 2 2 95.3590317 { 1 2 2 42.9012756 { 2 0 20 -1.90018761 } { 1 2 0 5.5 { 1 2 0 4.5 { 1 2 4 2.5 { 2 0 4 -1.36968398 } { 2 0 4 -1.129076 } 8 -2.49875998 } { 1 2 1 9256.89648 { 2 0 6 -1.56802797 } { 2 0 6 -1.76595509 } 12 -3.33398271 } 20 -5.83274221 } { 1 2 1 32745.6035 { 1 2 0 8.5 { 1 2 2 69.3693085 { 1 2 0 7 { 2 0 6 -1.10021591 } { 2 0 4 -0.94964397 } 10 -2.04986 } { 2 0 4 -1.18688703 } 14 -3.23674703 } { 2 0 7 -1.39092708 } 21 -4.62767363 } { 1 2 0 6.5 { 2 0 3 -0.715872049 } { 1 2 1 61317.0781 { 2 0 9 -1.46764898 } { 2 0 3 -0.704751015 } 12 -2.1724 } 15 -2.88827181 } 36 -7.51594687 } 56 -13.3486929 } 76 -15.2488813 } { 1 2 4 2.5 { 1 2 2 106.993759 { 1 2 2 101.051376 { 2 0 3 -1.20175004 } { 2 0 3 -1.35858905 } 6 -2.56033921 } { 1 2 2 117.018318 { 2 0 3 -1.53325093 } { 1 2 0 7.5 { 2 0 5 -2.93762398 } { 2 0 5 -2.54456687 } 10 -5.48219061 } 13 -7.01544189 } 19 -9.57578182 } { 1 2 0 9 { 1 2 0 5.5 { 2 0 3 -0.948360026 } { 1 2 1 13.4357376 { 2 0 10 -3.97018385 } { 2 0 3 -1.23500991 } 13 -5.205194 } 16 -6.15355349 } { 2 0 5 -1.57373405 } 21 -7.72728825 } 40 -17.3030663 } 116 -32.5519562 } { 1 2 2 27.8801842 { 1 2 4 1.5 { 1 2 2 7.37375736 { 2 0 4 -0.159570992 } { 1 2 1 1.9667635 { 2 0 4 -0.891483009 } { 2 0 3 -0.779282987 } 7 -1.67076588 } 11 -1.83033681 } { 1 2 2 15.5353603 { 2 0 7 -0.265571892 } { 2 0 6 -0.546405375 } 13 -0.811977267 } 24 -2.64231372 } { 2 0 87 -32.1670341 } 111 -34.8093491 } 227 -67.3612823 } { 1 2 2 275.636536 { 1 2 4 2.5 { 1 2 2 165.631195 { 1 2 1 18486.8496 { 1 2 1 11.3219738 { 2 0 3 -2.18664312 } { 2 0 4 -2.88884974 } 7 -5.07549286 } { 1 2 2 160.753723 { 2 0 4 -2.44971991 } { 1 2 0 6 { 2 0 7 -4.51093292 } { 2 0 3 -2.01381302 } 10 -6.52474546 } 14 -8.97446728 } 21 -14.0499582 } { 1 2 2 183.388947 { 2 0 6 -4.85752296 } { 2 0 6 -4.62976789 } 12 -9.48729038 } 33 -23.5372467 } { 1 2 2 219.572327 { 2 0 50 -25.3065758 } { 2 0 47 -32.6467552 } 97 -57.9533386 } 130 -81.4905701 } { 1 2 0 8.5 { 1 2 2 322.277344 { 1 2 1 18.9639359 { 2 0 3 -2.397048 } { 1 2 2 297.686035 { 2 0 9 -7.49569654 } { 1 2 2 317.587341 { 1 2 1 20.9298134 { 2 0 4 -3.49588394 } { 2 0 4 -3.5255599 } 8 -7.02144432 } { 2 0 5 -4.29755974 } 13 -11.319005 } 22 -18.8146992 } 25 -21.21175 } { 2 0 29 -27.6728001 } 54 -48.8845482 } { 1 2 2 283.072449 { 2 0 3 -2.38406086 } { 2 0 6 -4.40533209 } 9 -6.78939247 } 63 -55.6739349 } 193 -137.164551 } 420 -204.525711 } '
tRp38
(dp39
g6
g26
sg29
I1
sbag3
(S'1 -1 { 1 2 2 168.522186 { 1 2 1 10.567009 { 1 2 2 12.0529156 { 1 2 4 1.5 { 1 2 1 1.33503842 { 0 2 3 0 { 2 0 5 -0.373895496 } { 2 0 5 -0.373895496 } 5 -0.373895496 } { 2 0 4 -0.833342969 } 9 -1.20723844 } { 1 2 0 6.5 { 2 0 6 -0.383979827 } { 2 0 4 -0.073582001 } 10 -0.457561821 } 19 -1.66480041 } { 1 2 1 4.55798912 { 1 2 0 5.5 { 0 2 3 4.55954494e-41 { 2 0 3 -0.649479806 } { 2 0 28 -12.8941364 } 31 -13.5436153 } { 2 0 4 -0.313549191 } 35 -13.8571644 } { 1 2 2 70.2060318 { 1 2 2 42.361908 { 1 2 0 6.5 { 2 0 3 -0.573704004 } { 0 2 3 4.55954494e-41 { 2 0 5 -0.310164511 } { 2 0 4 -0.396251798 } 9 -0.706416368 } 12 -1.28012025 } { 1 2 0 8.5 { 1 2 4 2.5 { 2 0 7 -1.70253611 } { 2 0 13 -2.6121974 } 20 -4.31473351 } { 2 0 3 -0.321227998 } 23 -4.63596153 } 35 -5.91608143 } { 1 2 2 125.539085 { 1 2 4 2.5 { 0 2 3 4.55954494e-41 { 2 0 3 -0.978734016 } { 1 2 1 7.08489037 { 2 0 3 -1.06665301 } { 2 0 3 -1.00272894 } 6 -2.06938195 } 9 -3.04811597 } { 1 2 2 96.6247177 { 2 0 6 -1.57675982 } { 1 2 0 5.5 { 2 0 4 -1.27648604 } { 2 0 3 -1.10152197 } 7 -2.37800789 } 13 -3.95476747 } 22 -7.00288486 } { 2 0 6 -2.73889399 } 28 -9.74177742 } 63 -15.6578608 } 98 -29.5150299 } 117 -31.1798286 } { 2 0 132 -50.7877617 } 249 -81.9675217 } { 1 2 1 107046.922 { 1 2 0 5.5 { 1 2 4 2.5 { 1 2 2 183.388947 { 2 0 4 -3.21734309 } { 2 0 7 -5.14667177 } 11 -8.36401463 } { 1 2 1 20.4562359 { 0 2 3 4.55954494e-41 { 2 0 4 -2.56612492 } { 2 0 3 -1.96080601 } 7 -4.52693129 } { 1 2 2 340.141815 { 1 2 1 22567.7305 { 2 0 5 -4.46762514 } { 1 2 0 3.5 { 2 0 3 -2.61648011 } { 0 2 3 4.55954494e-41 { 2 0 5 -4.25463581 } { 2 0 5 -4.25463581 } 5 -4.25463581 } 8 -6.87111616 } 13 -11.3387413 } { 1 2 0 3.5 { 2 0 5 -5.09159994 } { 2 0 10 -9.37508011 } 15 -14.4666805 } 28 -25.8054237 } 35 -30.3323479 } 46 -38.6963654 } { 1 2 0 7.5 { 1 2 2 253.164673 { 1 2 0 6.5 { 1 2 1 67167.4141 { 2 0 7 -4.96271133 } { 2 0 4 -2.28487206 } 11 -7.24758291 } { 2 0 13 -7.28027773 } 24 -14.5278616 } { 0 2 3 4.55954494e-41 { 2 0 32 -26.354084 } { 1 2 1 19.8887062 { 1 2 1 19.1008492 { 2 0 3 -2.397048 } { 2 0 3 -2.7398138 } 6 -5.1368618 } { 1 2 2 275.507874 { 2 0 4 -2.95777893 } { 1 2 1 22.4060783 { 2 0 5 -4.09450436 } { 2 0 3 -2.67185998 } 8 -6.76636505 } 12 -9.72414207 } 18 -14.8610058 } 50 -41.2150917 } 74 -55.7429504 } { 2 0 32 -21.5253067 } 106 -77.2682724 } 152 -115.964622 } { 1 2 2 216.709396 { 1 2 1 130341.984 { 2 0 6 -2.91842389 } { 2 0 3 -1.56537604 } 9 -4.48379993 } { 1 2 2 253.648682 { 2 0 5 -3.46480012 } { 2 0 5 -3.92663288 } 10 -7.39143372 } 19 -11.8752327 } 171 -127.839859 } 420 -209.807526 } '
tRp40
(dp41
g6
g26
sg29
I1
sbag3
(S'1 -1 { 1 2 2 156.816895 { 1 2 4 2.5 { 1 2 2 37.4870682 { 1 2 1 3.36997223 { 0 2 3 4.55954494e-41 { 2 0 13 -3.07257891 } { 1 2 0 3.5 { 2 0 9 -1.72803271 } { 2 0 4 -1.34454596 } 13 -3.07257891 } 13 -3.07257891 } { 1 2 0 4.5 { 2 0 3 -0.160452902 } { 2 0 9 -1.25640821 } 12 -1.41686106 } 25 -4.48943996 } { 1 2 2 106.993759 { 1 2 1 4.44999743 { 1 2 1 2.87108493 { 1 2 0 3.5 { 0 2 3 0 { 2 0 4 -2.5321331 } { 2 0 4 -2.5321331 } 4 -2.5321331 } { 0 2 3 4.55954494e-41 { 2 0 4 -2.3933351 } { 2 0 4 -2.3933351 } 4 -2.3933351 } 8 -4.92546797 } { 2 0 4 -2.83438396 } 12 -7.75985146 } { 1 2 2 85.7412415 { 1 2 2 58.1978722 { 1 2 2 47.6080551 { 2 0 4 -0.750666022 } { 2 0 5 -1.17513394 } 9 -1.92579997 } { 1 2 2 66.668045 { 2 0 3 -0.820132017 } { 1 2 0 5.5 { 1 2 2 80.3229141 { 2 0 3 -0.899006009 } { 2 0 4 -1.24230397 } 7 -2.14130998 } { 2 0 3 -0.952811003 } 10 -3.09412074 } 13 -3.91425276 } 22 -5.84005308 } { 1 2 2 99.7005463 { 1 2 0 4.5 { 2 0 4 -1.49745595 } { 1 2 1 8.09140968 { 2 0 3 -1.20316195 } { 1 2 2 96.667923 { 2 0 7 -2.35841298 } { 2 0 3 -1.09693801 } 10 -3.45535088 } 13 -4.65851259 } 17 -6.15596819 } { 1 2 0 6.5 { 0 2 3 4.55954494e-41 { 2 0 3 -1.280599 } { 2 0 3 -1.280599 } 3 -1.280599 } { 2 0 3 -1.44432306 } 6 -2.72492218 } 23 -8.88088894 } 45 -14.7209454 } 57 -22.4808064 } { 1 2 0 6.5 { 1 2 1 11037.8594 { 1 2 1 12.4341059 { 1 2 0 5 { 2 0 3 -1.89408898 } { 2 0 3 -2.12635994 } 6 -4.02044868 } { 2 0 4 -2.83234072 } 10 -6.8527894 } { 2 0 6 -3.26222181 } 16 -10.1150112 } { 2 0 18 -9.61454582 } 34 -19.7295589 } 91 -42.2103691 } 116 -46.6998062 } { 1 2 0 3.5 { 2 0 4 -0.23605141 } { 1 2 1 2.84863353 { 2 0 5 -0.391936481 } { 1 2 2 100.644302 { 1 2 2 66.5485077 { 1 2 2 38.4137726 { 2 0 5 -0.286448509 } { 1 2 1 19138.7441 { 2 0 7 -0.894617021 } { 2 0 6 -0.839434028 } 13 -1.73405123 } 18 -2.02049971 } { 1 2 2 69.5924377 { 1 2 1 9.29663658 { 2 0 4 -0.928452015 } { 2 0 5 -0.97505796 } 9 -1.90350997 } { 1 2 2 73.1472015 { 2 0 4 -1.129076 } { 1 2 2 78.9585495 { 2 0 3 -0.491448015 } { 1 2 1 13.1280651 { 2 0 4 -1.0497179 } { 1 2 1 53106.6523 { 2 0 10 -2.36335707 } { 2 0 5 -1.12304103 } 15 -3.48639798 } 19 -4.53611517 } 22 -5.0275631 } 26 -6.15664005 } 35 -8.0601511 } 53 -10.0806532 } { 1 2 2 121.167587 { 2 0 23 -6.88193083 } { 1 2 2 144.220627 { 1 2 2 125.539085 { 2 0 7 -2.57021785 } { 1 2 1 80178.0547 { 1 2 2 136.073364 { 2 0 5 -2.00113201 } { 2 0 3 -1.18870902 } 8 -3.18984103 } { 2 0 3 -1.09897494 } 11 -4.28881598 } 18 -6.85903358 } { 1 2 2 155.056213 { 1 2 2 147.65123 { 2 0 4 -1.68548799 } { 0 2 3 4.55954494e-41 { 2 0 4 -1.78821003 } { 2 0 3 -1.35441899 } 7 -3.14262891 } 11 -4.82811642 } { 2 0 7 -2.79597497 } 18 -7.62409163 } 36 -14.4831247 } 59 -21.3650627 } 112 -31.4457073 } 117 -31.837635 } 121 -32.0736961 } 237 -78.773468 } { 1 2 0 5.5 { 1 2 2 297.855835 { 1 2 0 3.5 { 2 0 5 -3.26801014 } { 1 2 2 178.905151 { 2 0 10 -8.07340431 } { 1 2 1 74593.4219 { 1 2 1 51278.8594 { 2 0 6 -4.28409004 } { 2 0 4 -2.88474393 } 10 -7.16883373 } { 2 0 3 -2.36899805 } 13 -9.53783226 } 23 -17.6112347 } 28 -20.8792439 } { 1 2 2 340.141815 { 1 2 2 321.887512 { 2 0 6 -5.23296022 } { 2 0 8 -7.14117241 } 14 -12.3741322 } { 1 2 1 77950.1016 { 1 2 1 57297.7266 { 2 0 7 -7.01672029 } { 2 0 5 -5.41480017 } 12 -12.4315205 } { 2 0 3 -2.76373482 } 15 -15.1952562 } 29 -27.5693855 } 57 -48.4486275 } { 1 2 2 243.012268 { 1 2 1 26.2631989 { 1 2 2 213.300598 { 1 2 2 203.000092 { 1 2 2 183.531143 { 1 2 2 176.060913 { 0 2 3 4.55954494e-41 { 2 0 3 -1.48224902 } { 2 0 3 -1.41294897 } 6 -2.89519787 } { 2 0 6 -2.94858003 } 12 -5.84377718 } { 2 0 5 -2.57699299 } 17 -8.42076969 } { 2 0 5 -2.79653025 } 22 -11.2173004 } { 1 2 2 228.30574 { 0 2 3 4.55954494e-41 { 2 0 3 -1.82426798 } { 2 0 3 -1.82426798 } 3 -1.82426798 } { 1 2 2 231.531052 { 2 0 3 -1.95422101 } { 2 0 4 -2.75436807 } 7 -4.70858908 } 10 -6.53285694 } 32 -17.7501621 } { 1 2 2 224.196747 { 1 2 4 2.5 { 0 2 3 0 { 2 0 4 -2.6850841 } { 2 0 4 -2.81187701 } 8 -5.49696064 } { 0 2 3 4.55954494e-41 { 2 0 10 -5.81378031 } { 1 2 2 194.911072 { 2 0 3 -1.42653298 } { 2 0 3 -1.73861992 } 6 -3.16515303 } 16 -8.97893333 } 24 -14.4758949 } { 2 0 10 -6.82370472 } 34 -21.2996006 } 66 -39.0497513 } { 1 2 2 280.513702 { 1 2 1 27.737606 { 2 0 14 -10.092947 } { 1 2 2 250.517334 { 2 0 5 -3.70650005 } { 2 0 4 -3.09891009 } 9 -6.80541086 } 23 -16.8983612 } { 1 2 2 322.277344 { 1 2 0 6.5 { 2 0 4 -3.43804789 } { 2 0 21 -17.6243839 } 25 -21.0624332 } { 1 2 2 326.075867 { 2 0 3 -3.06236982 } { 1 2 0 7 { 2 0 4 -3.82180405 } { 2 0 5 -4.25918484 } 9 -8.08098888 } 12 -11.1433592 } 37 -32.2057953 } 60 -49.1041527 } 126 -88.1539383 } 183 -136.602554 } 420 -215.375946 } '
tRp42
(dp43
g6
g26
sg29
I1
sbag3
(S'1 -1 { 1 2 2 156.816895 { 1 2 2 95.3590317 { 1 2 4 1.5 { 1 2 2 30.5200653 { 1 2 1 1.75807834 { 0 2 3 4.55954494e-41 { 2 0 6 -1.15533698 } { 2 0 6 -1.15533698 } 6 -1.15533698 } { 1 2 2 18.2462044 { 2 0 6 -1.53622603 } { 2 0 3 -0.852498055 } 9 -2.38872409 } 15 -3.54406142 } { 1 2 1 2.98749399 { 0 2 3 4.55954494e-41 { 2 0 12 -6.29423809 } { 1 2 1 2.4058764 { 2 0 6 -3.49958205 } { 2 0 6 -2.7946558 } 12 -6.29423809 } 12 -6.29423809 } { 2 0 3 -2.24843502 } 15 -8.54267311 } 30 -12.0867348 } { 1 2 2 45.1905136 { 1 2 0 6.5 { 1 2 0 4 { 1 2 4 2.5 { 1 2 2 23.9741268 { 2 0 3 -0.130156487 } { 2 0 3 -0.347184002 } 6 -0.47734046 } { 1 2 1 2.33809376 { 2 0 3 -0.132184505 } { 2 0 3 -0.221892595 } 6 -0.354077131 } 12 -0.83141768 } { 0 2 3 0 { 2 0 6 -1.00459003 } { 2 0 4 -0.504022777 } 10 -1.50861287 } 22 -2.34003019 } { 2 0 17 -1.16421628 } 39 -3.50424647 } { 1 2 1 6.98565388 { 1 2 0 5.5 { 2 0 8 -2.13256598 } { 2 0 4 -1.27170002 } 12 -3.40426588 } { 0 2 3 4.55954494e-41 { 1 2 0 5.5 { 2 0 5 -1.4075501 } { 1 2 4 2.5 { 2 0 5 -1.36913514 } { 2 0 26 -5.32069349 } 31 -6.68982887 } 36 -8.09737873 } { 1 2 0 6.5 { 1 2 2 59.2537842 { 2 0 5 -1.04463005 } { 2 0 7 -2.02042913 } 12 -3.06505919 } { 1 2 0 9.5 { 1 2 2 66.9072723 { 1 2 1 32745.6035 { 2 0 3 -0.457963973 } { 2 0 4 -0.649908006 } 7 -1.10787213 } { 2 0 5 -0.944417953 } 12 -2.05228996 } { 2 0 4 -0.940544009 } 16 -2.99283361 } 28 -6.05789375 } 64 -14.1552658 } 76 -17.5595417 } 115 -21.0637836 } 145 -33.1505203 } { 1 2 4 2.5 { 2 0 46 -24.6189175 } { 1 2 1 6.3422699 { 2 0 3 -0.930351019 } { 1 2 2 121.167587 { 1 2 2 114.938995 { 2 0 11 -3.20648098 } { 0 2 3 4.55954494e-41 { 2 0 5 -1.55140209 } { 2 0 3 -0.939764023 } 8 -2.49116611 } 19 -5.69764709 } { 1 2 0 11.5 { 1 2 0 8.5 { 1 2 2 125.539085 { 2 0 6 -2.20304394 } { 1 2 0 6.5 { 1 2 1 15.8765888 { 2 0 11 -4.38571358 } { 2 0 10 -4.06009102 } 21 -8.44580364 } { 2 0 7 -2.6933589 } 28 -11.1391611 } 34 -13.342207 } { 2 0 4 -1.84125602 } 38 -15.1834602 } { 2 0 6 -2.19794989 } 44 -17.3814201 } 63 -23.0790672 } 66 -24.0094147 } 112 -48.6283417 } 257 -81.7788162 } { 1 2 2 243.012268 { 1 2 2 195.966492 { 0 2 3 4.55954494e-41 { 1 2 4 2.5 { 2 0 5 -3.66395998 } { 1 2 0 7.5 { 1 2 1 22.5696831 { 2 0 4 -2.06544995 } { 2 0 4 -1.83242607 } 8 -3.89787626 } { 1 2 1 42552.6094 { 2 0 4 -2.04609799 } { 2 0 3 -1.34908795 } 7 -3.39518571 } 15 -7.29306126 } 20 -10.9570217 } { 2 0 17 -9.45279694 } 37 -20.4098225 } { 1 2 4 2.5 { 2 0 3 -2.33455801 } { 1 2 0 7.5 { 1 2 2 219.572327 { 1 2 2 213.385925 { 2 0 4 -2.42127609 } { 2 0 6 -3.42730808 } 10 -5.84858418 } { 1 2 0 4.5 { 2 0 4 -2.61440802 } { 2 0 4 -2.55099487 } 8 -5.16540337 } 18 -11.0139894 } { 0 2 3 0 { 1 2 2 228.617935 { 1 2 1 86754.9219 { 2 0 5 -3.02562308 } { 2 0 4 -2.56049991 } 9 -5.58612299 } { 1 2 1 105981.109 { 2 0 5 -3.56909513 } { 2 0 3 -2.07888007 } 8 -5.64797497 } 17 -11.2340975 } { 1 2 0 9 { 2 0 5 -3.26554084 } { 2 0 3 -1.83938909 } 8 -5.10492992 } 25 -16.3390255 } 43 -27.3530197 } 46 -29.6875782 } 83 -50.0973854 } { 1 2 0 4.5 { 1 2 1 22567.5625 { 2 0 3 -3.00767994 } { 1 2 1 48724.9609 { 2 0 3 -2.61648011 } { 2 0 7 -6.49263668 } 10 -9.10911655 } 13 -12.1167955 } { 1 2 2 300.502625 { 1 2 2 275.636536 { 1 2 2 272.000244 { 1 2 2 265.355713 { 1 2 0 6.5 { 2 0 3 -2.35160708 } { 1 2 2 255.588577 { 2 0 4 -3.03579617 } { 2 0 3 -2.30047512 } 7 -5.33627129 } 10 -7.68787766 } { 2 0 4 -3.01915789 } 14 -10.7070351 } { 2 0 4 -2.94021201 } 18 -13.6472473 } { 0 2 3 4.55954494e-41 { 1 2 1 25.5121956 { 2 0 7 -5.84906006 } { 2 0 7 -5.42681599 } 14 -11.2758751 } { 2 0 7 -5.75410128 } 21 -17.0299759 } 39 -30.6772194 } { 1 2 2 343.667297 { 1 2 1 20.5978336 { 1 2 2 322.277344 { 1 2 2 310.825745 { 2 0 3 -2.62191296 } { 2 0 3 -2.57853603 } 6 -5.20044851 } { 2 0 3 -3.06236982 } 9 -8.26281834 } { 1 2 0 7.5 { 1 2 1 24.3032761 { 2 0 4 -3.50444889 } { 2 0 6 -5.36115026 } 10 -8.86559963 } { 2 0 6 -5.111022 } 16 -13.9766226 } 25 -22.2394352 } { 2 0 3 -2.86635303 } 28 -25.1057892 } 67 -55.7830048 } 80 -67.8998184 } 163 -117.997231 } 420 -199.776016 } '
tRp44
(dp45
g6
g26
sg29
I1
sbag3
(S'1 -1 { 1 2 1 10.5799818 { 1 2 2 29.4893723 { 1 2 4 1.5 { 1 2 1 1.45981324 { 1 2 1 1.0862211 { 2 0 3 -0.142079204 } { 2 0 4 -0.449463189 } 7 -0.591542363 } { 2 0 7 -1.91266704 } 14 -2.50420928 } { 1 2 2 23.409977 { 1 2 2 15.5353603 { 0 2 3 0 { 2 0 9 -0.550303698 } { 2 0 9 -0.550303698 } 9 -0.550303698 } { 2 0 3 -0.254825383 } 12 -0.805129111 } { 2 0 4 -0.458315998 } 16 -1.26344514 } 30 -3.76765466 } { 1 2 0 3.5 { 1 2 1 2.4626081 { 0 2 3 4.55954494e-41 { 2 0 6 -3.78858113 } { 2 0 6 -3.78858113 } 6 -3.78858113 } { 2 0 5 -2.75620413 } 11 -6.5447855 } { 1 2 4 1.5 { 2 0 6 -3.36680317 } { 1 2 0 6.5 { 1 2 1 8.843853 { 1 2 2 66.5187607 { 1 2 2 50.050293 { 2 0 6 -1.0437423 } { 2 0 8 -1.81113601 } 14 -2.85487819 } { 1 2 1 6.80521536 { 2 0 15 -4.79129219 } { 1 2 2 125.539085 { 1 2 0 5.5 { 2 0 4 -1.60421598 } { 2 0 4 -1.41848302 } 8 -3.02269888 } { 2 0 3 -1.21666503 } 11 -4.23936367 } 26 -9.03065491 } 40 -11.8855362 } { 1 2 2 126.585388 { 2 0 4 -1.32726204 } { 2 0 5 -2.64778399 } 9 -3.97504568 } 49 -15.8605833 } { 2 0 21 -3.9016459 } 70 -19.762228 } 76 -23.1290359 } 87 -29.6738358 } 117 -33.4414825 } { 1 2 1 2791.62183 { 1 2 2 231.531052 { 1 2 2 118.939575 { 1 2 4 2.5 { 1 2 2 106.663223 { 2 0 4 -1.962744 } { 2 0 5 -2.55299473 } 9 -4.51573896 } { 1 2 1 15.3268347 { 2 0 9 -2.62320423 } { 2 0 7 -1.71794903 } 16 -4.34115314 } 25 -8.85688972 } { 1 2 0 5.5 { 0 2 3 4.55954494e-41 { 2 0 6 -3.8750031 } { 1 2 1 13.9186649 { 2 0 5 -3.85464191 } { 2 0 4 -3.03897619 } 9 -6.89361763 } 15 -10.7686224 } { 1 2 4 2.5 { 1 2 2 140.128204 { 2 0 3 -1.76768208 } { 0 2 3 4.55954494e-41 { 2 0 4 -2.86258984 } { 2 0 3 -2.15022492 } 7 -5.012815 } 10 -6.78049707 } { 1 2 0 6.5 { 1 2 1 18.4635983 { 2 0 5 -2.01954198 } { 2 0 4 -2.15237999 } 9 -4.17192173 } { 1 2 2 189.770279 { 1 2 1 19.3460503 { 2 0 5 -2.16277313 } { 0 2 3 4.55954494e-41 { 2 0 4 -1.99812508 } { 2 0 3 -1.47429001 } 7 -3.47241521 } 12 -5.63518763 } { 1 2 2 205.806854 { 0 2 3 4.55954494e-41 { 2 0 5 -2.71463299 } { 2 0 5 -2.71463299 } 5 -2.71463299 } { 2 0 9 -5.45583153 } 14 -8.17046452 } 26 -13.8056507 } 35 -17.9775696 } 45 -24.7580662 } 60 -35.5266914 } 85 -44.3835869 } { 2 0 56 -45.2056618 } 141 -89.5892715 } { 1 2 2 156.816895 { 1 2 4 2.5 { 1 2 2 102.267578 { 1 2 2 47.6080551 { 2 0 5 -0.481601298 } { 1 2 2 80.3229141 { 1 2 2 56.571125 { 2 0 4 -0.918983936 } { 2 0 5 -1.43132806 } 9 -2.35031176 } { 0 2 3 4.55954494e-41 { 2 0 3 -1.00358701 } { 2 0 4 -1.35244393 } 7 -2.35603094 } 16 -4.70634222 } 21 -5.18794394 } { 1 2 2 130.738968 { 1 2 0 4.5 { 2 0 4 -1.956604 } { 0 2 3 0 { 2 0 5 -2.15099287 } { 2 0 4 -1.83106804 } 9 -3.98206091 } 13 -5.93866539 } { 1 2 2 146.787384 { 1 2 2 137.414307 { 2 0 3 -1.56826687 } { 2 0 6 -3.31430197 } 9 -4.88256884 } { 2 0 3 -1.82508898 } 12 -6.70765829 } 25 -12.6463232 } 46 -17.8342628 } { 1 2 1 69346.9219 { 1 2 0 11.5 { 1 2 2 79.8097382 { 1 2 1 39144.0703 { 2 0 3 -0.48743099 } { 0 2 3 4.55954494e-41 { 2 0 3 -0.523014009 } { 2 0 3 -0.523014009 } 6 -1.04602802 } 9 -1.53345895 } { 1 2 0 8.5 { 2 0 3 -0.715872049 } { 2 0 4 -0.836579978 } 7 -1.55245197 } 16 -3.08591127 } { 1 2 0 13 { 2 0 3 -0.150524706 } { 2 0 4 -0.514479995 } 7 -0.66500473 } 23 -3.75091577 } { 1 2 1 77499.2656 { 2 0 4 -1.5977 } { 1 2 0 11 { 2 0 3 -0.880046964 } { 2 0 6 -2.19794989 } 9 -3.07799673 } 13 -4.67569637 } 36 -8.4266119 } 82 -26.2608795 } { 1 2 0 4.5 { 1 2 2 350.62207 { 2 0 13 -11.2128639 } { 2 0 5 -5.1724 } 18 -16.3852654 } { 1 2 0 8.5 { 1 2 2 316.727692 { 0 2 3 4.55954494e-41 { 1 2 1 90416.0078 { 1 2 2 231.053558 { 1 2 1 66755.6406 { 1 2 1 54490.1328 { 1 2 1 51278.8594 { 2 0 3 -2.03991795 } { 2 0 5 -3.60592985 } 8 -5.64584827 } { 2 0 3 -2.01381302 } 11 -7.65966082 } { 2 0 5 -2.75816011 } 16 -10.4178219 } { 2 0 4 -2.96519995 } 20 -13.3830194 } { 1 2 0 7.5 { 2 0 4 -3.13582301 } { 2 0 6 -4.38602209 } 10 -7.52184582 } 30 -20.9048653 } { 1 2 1 43308.0625 { 2 0 3 -1.90533495 } { 1 2 1 53154.9844 { 2 0 3 -2.42100692 } { 1 2 1 91010.125 { 2 0 5 -3.36719513 } { 2 0 4 -2.84487605 } 9 -6.21207142 } 12 -8.63307762 } 15 -10.5384121 } 45 -31.4432793 } { 2 0 4 -3.82180405 } 49 -35.2650871 } { 1 2 0 15 { 1 2 1 101325.516 { 2 0 3 -1.87391102 } { 1 2 0 10 { 2 0 3 -1.45921206 } { 2 0 4 -2.08716798 } 7 -3.5463798 } 10 -5.42029095 } { 2 0 3 -2.07888007 } 13 -7.4991703 } 62 -42.764267 } 80 -59.1495476 } 162 -85.410408 } 303 -174.999634 } 420 -208.441071 } '
tRp46
(dp47
g6
g26
sg29
I1
sbaS'Random Forest'
p48
cOrange.orange
__pickleLoaderDomain
p49
(cOrange.data
Domain
p50
cOrange.core
VarList
p51
(tRp52
g7
(g8
(dp53
g10
Nsg11
I1
sg12
I2
sg13
I0
sg14
Nsg15
I0
sg16
I0
sg17
F0
sg18
F-1
sg19
I0
sg20
F-1
sS'attributes'
p54
(dp55
sg23
I1
sS'name'
p56
S'F_0'
p57
stRp58
(dp59
g28
Nsbag7
(g8
(dp60
g10
Nsg11
I1
sg12
I2
sg13
I0
sg14
Nsg15
I0
sg16
I15
sg17
F0
sg18
F-1
sg19
I0
sg20
F-1
sS'attributes'
p61
(dp62
sg23
I1
sS'name'
p63
S'F_1'
p64
stRp65
(dp66
g28
Nsbag7
(g8
(dp67
g10
Nsg11
I1
sg12
I2
sg13
I0
sg14
Nsg15
I0
sg16
I6
sg17
F0
sg18
F-1
sg19
I0
sg20
F-1
sS'attributes'
p68
(dp69
sg23
I1
sS'name'
p70
S'F_2'
p71
stRp72
(dp73
g28
NsbacOrange.orange
__pickleLoaderEnumVariable
p74
(cOrange.feature
Discrete
p75
(dp76
g10
Nsg11
I0
sS'name'
p77
S'F_4'
p78
sg12
I1
sg14
Nsg15
I0
sS'values'
p79
cOrange.core
StringList
p80
(tRp81
S'False'
aS'True'
a(dbsS'attributes'
p82
(dp83
sg19
I0
sS'base_value'
p84
I-1
stRp85
(dp86
g28
Nsbag7
(g8
(dp87
g10
Nsg11
I1
sg12
I2
sg13
I0
sg14
Nsg15
I0
sg16
I0
sg17
F0
sg18
F-1
sg19
I0
sg20
F-1
sS'attributes'
p88
(dp89
sg23
I1
sS'name'
p90
S'F_5'
p91
stRp92
(dp93
g28
Nsba(dbg26
g51
(tRp94
(db(d(dtRp95
(dbg26
(lp96
g26
atRp97
(dp98
S'name'
p99
g48
sS'domain'
p100
g95
sS'single_class'
p101
I01
sS'classifiers'
p102
g2
sS'class_vars'
p103
g96
sb.