cOrange.ensemble.forest
RandomForestClassifier
p0
((lp1
cOrange.orange
__pickleLoaderSimpleTreeClassifier
p2
(S'1 -1 { 1 2 1 2.19265151 { 2 0 57 -32.7013817 } { 2 0 148 -68.0382462 } 205 -100.739594 } '
p3
tp4
Rp5
(dp6
S'class_var'
p7
cOrange.orange
__pickleLoaderVariable
p8
(cOrange.feature
Continuous
p9
(dp10
S'source_variable'
p11
NsS'ordered'
p12
I1
sS'var_type'
p13
I2
sS'scientific_format'
p14
I0
sS'random_generator'
p15
NsS'distributed'
p16
I0
sS'number_of_decimals'
p17
I7
sS'end_value'
p18
F0.0
sS'step_value'
p19
F-1.0
sS'default_meta_id'
p20
I0
sS'start_value'
p21
F-1.0
sS'adjust_decimals'
p22
I1
sS'name'
p23
S'Cognitive Load Estimate'
p24
stp25
Rp26
(dp27
S'get_value_from'
p28
NsbsS'computes_probabilities'
p29
I1
sbag2
(S'1 -1 { 1 2 1 5.86809349 { 1 2 2 7.15995646 { 1 2 1 1.5856061 { 1 2 1 1.20158505 { 2 0 6 -2.73877621 } { 2 0 9 -5.69263983 } 15 -8.43141556 } { 1 2 0 7.5 { 1 2 1 3.20061493 { 1 2 2 3.22253513 { 1 2 2 1.011675 { 2 0 10 -3.04071784 } { 2 0 6 -0.89979893 } 16 -3.94051695 } { 1 2 0 3.5 { 2 0 5 -3.40771699 } { 1 2 0 4.5 { 1 2 1 2.01670551 { 2 0 6 -0.471362501 } { 2 0 5 -2.11424303 } 11 -2.58560562 } { 1 2 1 2.68628883 { 1 2 1 2.62896705 { 1 2 0 5.5 { 2 0 5 -1.95924902 } { 2 0 8 -4.39281797 } 13 -6.35206747 } { 2 0 5 -2.82801318 } 18 -9.18008041 } { 1 2 1 3.18301392 { 2 0 10 -2.55118871 } { 2 0 7 -3.12581635 } 17 -5.67700529 } 35 -14.8570843 } 46 -17.4426899 } 51 -20.8504047 } 67 -24.7909222 } { 2 0 10 -1.99981737 } 77 -26.7907314 } { 1 2 2 6.83608627 { 2 0 11 -6.06613636 } { 2 0 5 -1.74236226 } 16 -7.80849838 } 93 -34.5992355 } 108 -43.030632 } { 1 2 0 6.5 { 1 2 1 2.02917004 { 2 0 9 -7.01791382 } { 1 2 1 2.22467136 { 2 0 6 -2.61329842 } { 1 2 2 20.1076069 { 1 2 2 9.71291351 { 2 0 6 -4.65429974 } { 1 2 2 12.253376 { 2 0 6 -3.05611181 } { 2 0 8 -5.27763748 } 14 -8.33374882 } 20 -12.9880486 } { 2 0 5 -4.15264416 } 25 -17.1406937 } 31 -19.7539902 } 40 -26.771904 } { 1 2 2 7.56330109 { 2 0 6 -5.05181408 } { 1 2 1 4.97040701 { 1 2 1 3.91981936 { 1 2 2 15.0707664 { 1 2 1 2.72045612 { 2 0 5 -3.01893687 } { 1 2 1 3.38175201 { 2 0 9 -3.44499826 } { 2 0 6 -2.57007098 } 15 -6.01506901 } 20 -9.03400707 } { 2 0 5 -3.72292805 } 25 -12.7569361 } { 1 2 0 9.5 { 2 0 6 -1.11770296 } { 2 0 7 -2.18307018 } 13 -3.30077314 } 38 -16.0577068 } { 2 0 5 -3.61993217 } 43 -19.6776409 } 49 -24.7294521 } 89 -51.501358 } 197 -94.5320206 } { 2 0 8 -2.1444664 } 205 -96.6764755 } '
p30
tp31
Rp32
(dp33
g7
g26
sg29
I1
sbag2
(S'1 -1 { 1 2 2 7.15995646 { 1 2 0 3.5 { 1 2 2 5.34826469 { 1 2 1 1.99528444 { 1 2 1 1.42699409 { 2 0 7 -3.0392549 } { 2 0 9 -4.79103899 } 16 -7.83029413 } { 2 0 5 -1.46659267 } 21 -9.2968874 } { 2 0 7 -5.43489265 } 28 -14.7317801 } { 1 2 2 1.00909901 { 2 0 7 -4.85596418 } { 1 2 0 8.5 { 2 0 62 -18.3162766 } { 1 2 2 4.53650951 { 2 0 5 -2.88509512 } { 2 0 6 -2.88557601 } 11 -5.77067089 } 73 -24.0869446 } 80 -28.9429054 } 108 -43.6746864 } { 1 2 0 4.5 { 1 2 2 7.79396629 { 2 0 5 -4.40269184 } { 2 0 6 -4.63020182 } 11 -9.03289413 } { 1 2 1 5.6253643 { 1 2 1 4.19907045 { 1 2 2 8.03734684 { 2 0 7 -5.18466234 } { 1 2 0 7.5 { 1 2 1 3.13127565 { 1 2 0 5.5 { 2 0 5 -2.44279408 } { 1 2 1 2.73673296 { 2 0 7 -3.81267214 } { 2 0 6 -2.82661605 } 13 -6.63928843 } 18 -9.08208084 } { 2 0 8 -5.81470966 } 26 -14.8967943 } { 1 2 2 13.6075382 { 1 2 2 10.3434248 { 2 0 7 -3.71746016 } { 2 0 9 -4.45240402 } 16 -8.16986465 } { 2 0 6 -2.46862793 } 22 -10.6384926 } 48 -25.535284 } 55 -30.7199421 } { 1 2 2 11.6083374 { 2 0 8 -4.87241459 } { 2 0 9 -3.23581505 } 17 -8.10822964 } 72 -38.8281822 } { 1 2 0 13 { 2 0 9 -1.79398549 } { 2 0 5 -2.62174201 } 14 -4.41572714 } 86 -43.2439079 } 97 -52.2768059 } 205 -95.9514771 } '
p34
tp35
Rp36
(dp37
g7
g26
sg29
I1
sbag2
(S'1 -1 { 1 2 0 10.5 { 1 2 1 5.6253643 { 1 2 1 2.19417405 { 1 2 2 7.68082142 { 2 0 44 -19.801321 } { 1 2 0 4.5 { 1 2 2 14.9448891 { 2 0 5 -3.01812506 } { 2 0 5 -3.68287086 } 10 -6.70099592 } { 2 0 9 -6.22660065 } 19 -12.9275951 } 63 -32.7289085 } { 1 2 1 2.99935555 { 1 2 2 6.28355455 { 1 2 2 3.76754093 { 2 0 5 -0.491104573 } { 1 2 2 5.56512737 { 2 0 14 -5.24264145 } { 1 2 2 5.64943123 { 2 0 7 -0.689832568 } { 2 0 8 -2.93351817 } 15 -3.62335062 } 29 -8.86599255 } 34 -9.35709858 } { 1 2 1 2.4241364 { 2 0 9 -5.39487743 } { 2 0 10 -4.73802662 } 19 -10.1329031 } 53 -19.4900017 } { 1 2 1 3.55375648 { 1 2 1 3.39504719 { 1 2 1 3.29177594 { 1 2 0 6.5 { 2 0 9 -3.44321203 } { 2 0 9 -4.43871117 } 18 -7.88192368 } { 2 0 9 -5.00199509 } 27 -12.8839197 } { 2 0 5 -3.62845993 } 32 -16.5123787 } { 1 2 1 4.37306023 { 1 2 0 9.5 { 1 2 2 9.36595345 { 2 0 6 -1.70289314 } { 2 0 8 -1.70343101 } 14 -3.40632415 } { 2 0 6 -2.9465282 } 20 -6.35285234 } { 1 2 1 5.13355064 { 1 2 2 9.23155308 { 2 0 6 -2.62506795 } { 2 0 5 -2.76870108 } 11 -5.39376831 } { 2 0 7 -4.19574213 } 18 -9.58950901 } 38 -15.9423618 } 70 -32.4547424 } 123 -51.9447632 } 186 -84.6736526 } { 2 0 8 -1.53480244 } 194 -86.2084656 } { 1 2 1 4.04738855 { 2 0 5 -3.82963848 } { 2 0 6 -4.09821749 } 11 -7.92785597 } 205 -94.1363068 } '
p38
tp39
Rp40
(dp41
g7
g26
sg29
I1
sbag2
(S'1 -1 { 1 2 0 10.5 { 1 2 1 5.40058041 { 1 2 1 4.43360233 { 1 2 2 5.64900589 { 2 0 82 -29.0354042 } { 1 2 0 4.5 { 2 0 17 -12.3528957 } { 1 2 1 4.29885769 { 1 2 1 2.36683989 { 2 0 12 -7.86448097 } { 1 2 2 5.6979847 { 2 0 7 -4.5956068 } { 1 2 1 2.56239557 { 2 0 10 -2.92818594 } { 1 2 1 3.4376545 { 2 0 25 -12.0902185 } { 1 2 2 9.23155308 { 2 0 5 -1.92302203 } { 1 2 1 3.58527446 { 2 0 5 -4.25689411 } { 2 0 5 -2.69286108 } 10 -6.94975471 } 15 -8.87277699 } 40 -20.9629955 } 50 -23.8911819 } 57 -28.4867897 } 69 -36.3512726 } { 2 0 8 -1.85486197 } 77 -38.206131 } 94 -50.5590515 } 176 -79.5944595 } { 1 2 0 8.5 { 2 0 5 -3.86279392 } { 2 0 7 -3.2718792 } 12 -7.13467312 } 188 -86.7291336 } { 2 0 5 -1.16093695 } 193 -87.8900681 } { 1 2 1 4.19714069 { 2 0 6 -5.51259613 } { 2 0 6 -2.58100891 } 12 -8.093606 } 205 -95.9836655 } '
p42
tp43
Rp44
(dp45
g7
g26
sg29
I1
sbag2
(S'1 -1 { 1 2 0 16.5 { 1 2 2 7.15995646 { 1 2 1 2.19265151 { 1 2 0 3.5 { 1 2 2 3.16254592 { 2 0 5 -2.28783703 } { 1 2 2 3.23837852 { 2 0 6 -4.04417896 } { 1 2 1 1.64213109 { 2 0 5 -3.09261203 } { 2 0 5 -2.39247894 } 10 -5.48509073 } 16 -9.52927017 } 21 -11.8171082 } { 1 2 1 1.96020055 { 1 2 1 1.83875394 { 1 2 1 1.71572495 { 2 0 6 -1.38388252 } { 2 0 5 -0.808828712 } 11 -2.19271088 } { 2 0 7 -2.17784214 } 18 -4.37055349 } { 1 2 0 4.5 { 2 0 6 -4.45411301 } { 2 0 7 -4.47660971 } 13 -8.93072224 } 31 -13.3012733 } 52 -25.1183891 } { 1 2 1 2.22851562 { 2 0 5 -0.42323631 } { 1 2 1 2.44406796 { 2 0 8 -4.62618303 } { 1 2 2 3.92046642 { 2 0 6 -2.84649396 } { 1 2 0 7.5 { 1 2 1 2.73292446 { 1 2 1 2.65966105 { 2 0 8 -2.56228876 } { 2 0 6 -2.730793 } 14 -5.29308128 } { 1 2 1 3.04615402 { 2 0 5 -0.504270613 } { 1 2 1 3.16556358 { 2 0 5 -1.77553499 } { 2 0 6 -1.61665809 } 11 -3.39219308 } 16 -3.89646363 } 30 -9.18954468 } { 1 2 2 6.82077789 { 2 0 5 -2.22031593 } { 2 0 6 -2.54932189 } 11 -4.76963806 } 41 -13.9591827 } 47 -16.8056736 } 55 -21.43186 } 60 -21.8551006 } 112 -46.9734802 } { 1 2 2 7.73213196 { 2 0 6 -4.13868999 } { 1 2 1 3.58527446 { 1 2 1 3.49586105 { 1 2 2 16.7725487 { 1 2 2 9.6414299 { 2 0 8 -3.33580256 } { 1 2 1 2.45575953 { 2 0 13 -8.57597351 } { 1 2 2 12.7570438 { 2 0 8 -3.26518393 } { 2 0 9 -4.9491353 } 17 -8.21431923 } 30 -16.7902946 } 38 -20.1260986 } { 2 0 6 -4.85165501 } 44 -24.9777508 } { 2 0 6 -5.60151196 } 50 -30.5792599 } { 1 2 2 11.6083374 { 1 2 0 10 { 2 0 8 -3.12596798 } { 2 0 6 -3.82397819 } 14 -6.94994593 } { 1 2 1 4.11271048 { 2 0 7 -2.690238 } { 2 0 10 -2.27046728 } 17 -4.96070528 } 31 -11.9106493 } 81 -42.4899101 } 87 -46.6285934 } 199 -93.6020584 } { 2 0 6 -5.29070854 } 205 -98.8927994 } '
p46
tp47
Rp48
(dp49
g7
g26
sg29
I1
sbag2
(S'1 -1 { 1 2 0 14.5 { 1 2 1 5.86809349 { 1 2 1 1.49938154 { 1 2 0 3.5 { 2 0 5 -1.14132214 } { 2 0 7 -2.85777235 } 12 -3.99909472 } { 1 2 1 1.81835151 { 1 2 2 6.52449989 { 2 0 6 -3.51000476 } { 2 0 9 -7.52145386 } 15 -11.0314589 } { 1 2 2 7.1732626 { 1 2 0 10.5 { 1 2 0 8.5 { 1 2 2 5.74175835 { 1 2 1 2.18516588 { 1 2 2 2.71304607 { 2 0 5 -3.00496387 } { 1 2 1 1.89796495 { 2 0 5 -1.94282413 } { 2 0 5 -2.52667999 } 10 -4.46950436 } 15 -7.47446775 } { 1 2 2 3.32383609 { 2 0 9 -0.980883896 } { 1 2 1 2.61668396 { 2 0 8 -4.95720911 } { 1 2 0 6.5 { 1 2 1 2.95371604 { 2 0 8 -1.64368081 } { 1 2 2 5.6275816 { 2 0 5 -1.09561408 } { 2 0 5 -2.15270901 } 10 -3.24832344 } 18 -4.89200401 } { 2 0 6 -2.18863916 } 24 -7.08064222 } 32 -12.0378523 } 41 -13.018734 } 56 -20.4931965 } { 2 0 6 -1.21940112 } 62 -21.712595 } { 2 0 9 -4.87472725 } 71 -26.587326 } { 2 0 5 -0.818329215 } 76 -27.4056549 } { 1 2 2 7.64646578 { 2 0 5 -4.24690199 } { 1 2 1 3.55375648 { 1 2 0 5.5 { 2 0 7 -2.4167738 } { 1 2 1 3.45005035 { 1 2 0 6.5 { 2 0 26 -16.7572136 } { 2 0 13 -6.69318867 } 39 -23.4504032 } { 2 0 5 -3.85037804 } 44 -27.3007793 } 51 -29.7175541 } { 1 2 0 7.5 { 2 0 9 -2.16078281 } { 1 2 2 11.6083374 { 1 2 1 5.03186512 { 2 0 7 -5.11950111 } { 2 0 6 -2.7621119 } 13 -7.88161325 } { 1 2 1 4.41609144 { 2 0 5 -1.81528306 } { 2 0 6 -2.65019703 } 11 -4.46548033 } 24 -12.3470917 } 33 -14.5078745 } 84 -44.2254333 } 89 -48.4723434 } 165 -75.8779907 } 180 -86.9094238 } 192 -90.9085159 } { 2 0 8 -1.56950927 } 200 -92.4780655 } { 2 0 5 -4.84936047 } 205 -97.3274231 } '
p50
tp51
Rp52
(dp53
g7
g26
sg29
I1
sbag2
(S'1 -1 { 1 2 1 5.6253643 { 1 2 2 20.4186649 { 1 2 2 7.1732626 { 1 2 2 1.00909901 { 2 0 5 -4.08599901 } { 1 2 2 1.01289546 { 2 0 6 -1.0877527 } { 2 0 89 -37.0306549 } 95 -38.1184082 } 100 -42.2044067 } { 1 2 0 9.5 { 1 2 2 11.5169678 { 2 0 32 -18.9647236 } { 1 2 1 3.70641994 { 1 2 2 11.5438938 { 2 0 6 -1.26975608 } { 1 2 2 15.7176628 { 1 2 2 12.6606655 { 1 2 1 2.43046403 { 1 2 2 12.1666698 { 2 0 9 -6.53383732 } { 2 0 5 -2.54041481 } 14 -9.07425308 } { 2 0 9 -4.18534517 } 23 -13.2595968 } { 2 0 6 -4.31066179 } 29 -17.570261 } { 2 0 8 -3.70083094 } 37 -21.2710915 } 43 -22.5408478 } { 2 0 7 -1.58679092 } 50 -24.1276398 } 82 -43.0923576 } { 2 0 5 -4.06439114 } 87 -47.1567497 } 187 -89.3611374 } { 2 0 9 -7.49285555 } 196 -96.8540192 } { 2 0 9 -2.53538823 } 205 -99.3893738 } '
p54
tp55
Rp56
(dp57
g7
g26
sg29
I1
sbag2
(S'1 -1 { 1 2 2 7.1732626 { 1 2 2 1.01043701 { 2 0 5 -4.11982012 } { 1 2 0 3.5 { 1 2 2 5.34826469 { 1 2 2 3.20421696 { 2 0 5 -2.41836882 } { 2 0 5 -2.49896312 } 10 -4.91733217 } { 2 0 7 -4.46402836 } 17 -9.38136101 } { 1 2 0 8.5 { 1 2 1 1.97903395 { 1 2 2 3.80640793 { 2 0 5 -1.36192989 } { 2 0 5 -0.324852586 } 10 -1.68678248 } { 1 2 1 2.59839392 { 2 0 25 -11.814393 } { 1 2 1 2.64975214 { 2 0 5 -0.817355037 } { 1 2 1 2.86622763 { 2 0 8 -3.33311248 } { 1 2 1 3.18248153 { 1 2 2 5.63898897 { 2 0 5 -1.56793296 } { 2 0 5 -0.791066051 } 10 -2.35899878 } { 1 2 0 6.5 { 2 0 5 -2.00346708 } { 2 0 8 -2.0621841 } 13 -4.06565094 } 23 -6.42465019 } 31 -9.75776386 } 36 -10.5751181 } 61 -22.3894978 } 71 -24.0762825 } { 1 2 1 4.29692841 { 2 0 6 -3.97487092 } { 2 0 7 -3.34203529 } 13 -7.3169055 } 84 -31.3931847 } 101 -40.7745476 } 106 -44.894371 } { 1 2 1 3.70485997 { 2 0 59 -40.8344536 } { 1 2 1 5.86809349 { 1 2 2 11.6083374 { 1 2 2 11.4332438 { 2 0 6 -3.62663388 } { 2 0 5 -3.99514294 } 11 -7.62177658 } { 1 2 0 9.5 { 1 2 2 16.2862282 { 1 2 2 13.2002487 { 2 0 5 -1.130651 } { 2 0 9 -3.16152692 } 14 -4.29217815 } { 2 0 5 -2.44843698 } 19 -6.74061489 } { 2 0 5 -3.53239107 } 24 -10.2730045 } 35 -17.894783 } { 2 0 5 -0.684800625 } 40 -18.5795879 } 99 -59.4140549 } 205 -104.308395 } '
p58
tp59
Rp60
(dp61
g7
g26
sg29
I1
sbag2
(S'1 -1 { 1 2 2 7.1732626 { 1 2 2 6.87767315 { 1 2 1 2.19265151 { 1 2 2 5.6041255 { 1 2 2 5.34826469 { 1 2 1 1.9225775 { 1 2 1 1.42411256 { 2 0 6 -3.09271383 } { 2 0 9 -3.25134397 } 15 -6.34405851 } { 2 0 8 -4.60527086 } 23 -10.9493303 } { 2 0 6 -4.41264009 } 29 -15.3619699 } { 2 0 6 -1.86437118 } 35 -17.2263412 } { 2 0 64 -24.1843681 } 99 -41.4107056 } { 2 0 5 -0.89344281 } 104 -42.3041458 } { 2 0 101 -53.6652412 } 205 -95.9693909 } '
p62
tp63
Rp64
(dp65
g7
g26
sg29
I1
sbag2
(S'1 -1 { 1 2 2 7.1732626 { 1 2 2 1.00836992 { 2 0 8 -6.85871077 } { 2 0 107 -41.4976425 } 115 -48.3563576 } { 1 2 1 3.58527446 { 1 2 1 2.20928192 { 1 2 0 4.5 { 2 0 9 -6.99698019 } { 2 0 5 -3.55136299 } 14 -10.5483446 } { 1 2 2 7.87804127 { 2 0 6 -4.50620699 } { 1 2 0 6.5 { 1 2 2 11.7237301 { 1 2 1 2.29472542 { 2 0 5 -3.05217004 } { 2 0 5 -2.61833596 } 10 -5.67050552 } { 2 0 9 -6.17774057 } 19 -11.8482456 } { 1 2 2 9.15258217 { 2 0 5 -2.83318686 } { 2 0 6 -3.22703004 } 11 -6.0602169 } 30 -17.9084625 } 36 -22.4146671 } 50 -32.9630089 } { 1 2 2 11.6083374 { 2 0 10 -6.57104111 } { 1 2 1 4.78880453 { 1 2 2 14.8120213 { 2 0 7 -2.10621595 } { 2 0 5 -1.18121898 } 12 -3.28743458 } { 1 2 1 5.6253643 { 1 2 1 5.31829786 { 2 0 6 -3.90243196 } { 2 0 5 -3.92389011 } 11 -7.82632256 } { 2 0 7 -1.95852625 } 18 -9.78484726 } 30 -13.0722799 } 40 -19.6433258 } 90 -52.6063538 } 205 -100.9627 } '
p66
tp67
Rp68
(dp69
g7
g26
sg29
I1
sbag2
(S'1 -1 { 1 2 0 3.5 { 1 2 2 5.44550753 { 1 2 1 1.8959775 { 2 0 11 -5.99275732 } { 2 0 6 -2.94143629 } 17 -8.93419456 } { 2 0 8 -6.44853067 } 25 -15.3827248 } { 1 2 2 7.1732626 { 1 2 0 7.5 { 1 2 1 2.59839392 { 1 2 1 2.34571981 { 1 2 2 4.44333172 { 1 2 2 3.23955297 { 2 0 11 -3.05960774 } { 2 0 7 -2.96848202 } 18 -6.02809 } { 2 0 9 -2.1859405 } 27 -8.21403027 } { 2 0 8 -3.93351221 } 35 -12.147541 } { 1 2 1 2.68466187 { 2 0 6 -0.97980088 } { 1 2 1 3.22186995 { 2 0 15 -5.08734322 } { 2 0 7 -1.48731422 } 22 -6.57465744 } 28 -7.55445766 } 63 -19.7019939 } { 1 2 2 6.83608627 { 2 0 10 -5.36074066 } { 2 0 5 -1.4909389 } 15 -6.85167933 } 78 -26.5536728 } { 1 2 1 3.55805302 { 1 2 1 2.59606218 { 2 0 36 -20.6327972 } { 1 2 1 2.90884995 { 2 0 7 -5.88840771 } { 1 2 1 3.09173489 { 2 0 5 -2.13489509 } { 1 2 2 11.681469 { 2 0 6 -2.94961095 } { 2 0 6 -4.92698288 } 12 -7.87659359 } 17 -10.0114889 } 24 -15.8998966 } 60 -36.532692 } { 1 2 0 8.5 { 1 2 2 13.3034258 { 2 0 5 -1.20650697 } { 2 0 6 -1.00335395 } 11 -2.2098608 } { 1 2 2 10.3172817 { 2 0 6 -4.4396162 } { 1 2 2 17.7076244 { 1 2 2 12.6200743 { 2 0 7 -3.02864695 } { 2 0 9 -2.13774824 } 16 -5.16639519 } { 2 0 9 -4.87724161 } 25 -10.0436354 } 31 -14.4832497 } 42 -16.6931114 } 102 -53.2258263 } 180 -79.7794876 } 205 -95.1621857 } '
p70
tp71
Rp72
(dp73
g7
g26
sg29
I1
sbag2
(S'1 -1 { 1 2 2 735080192 { 1 2 2 7.1732626 { 2 0 118 -47.4190102 } { 1 2 1 5.6253643 { 1 2 2 9.67498684 { 1 2 0 6.5 { 1 2 1 2.44287753 { 2 0 7 -4.26486588 } { 2 0 5 -4.57914162 } 12 -8.84400749 } { 2 0 6 -3.5347681 } 18 -12.3787766 } { 1 2 2 16.2112808 { 1 2 2 11.6467047 { 1 2 2 11.4332438 { 1 2 2 10.3730965 { 2 0 9 -4.69705486 } { 2 0 5 -2.26645494 } 14 -6.96350956 } { 1 2 2 11.5169678 { 2 0 5 -4.27462292 } { 2 0 5 -2.75205708 } 10 -7.02668095 } 24 -13.9901905 } { 1 2 2 12.1919689 { 2 0 9 -3.14174485 } { 2 0 7 -3.32576418 } 16 -6.46750879 } 40 -20.4576988 } { 1 2 2 20.1076069 { 2 0 5 -3.91707587 } { 2 0 5 -2.97332096 } 10 -6.89039707 } 50 -27.3480988 } 68 -39.7268867 } { 1 2 1 6.55270243 { 2 0 9 -2.19396901 } { 2 0 5 -1.67214441 } 14 -3.86611295 } 82 -43.5930061 } 200 -91.0119858 } { 2 0 5 -4.82395506 } 205 -95.8359222 } '
p74
tp75
Rp76
(dp77
g7
g26
sg29
I1
sbag2
(S'1 -1 { 1 2 2 7.1732626 { 1 2 2 1.00909901 { 1 2 1 1.87830949 { 2 0 5 -3.98704529 } { 2 0 5 -3.27343488 } 10 -7.26047993 } { 1 2 2 5.6041255 { 1 2 1 1.77302849 { 1 2 2 3.17839003 { 2 0 6 -2.39260006 } { 2 0 5 -3.44149685 } 11 -5.83409691 } { 1 2 2 3.23496246 { 1 2 2 3.18583107 { 2 0 9 -3.50035071 } { 2 0 12 -2.00791025 } 21 -5.50826073 } { 1 2 1 2.48091412 { 1 2 2 4.40983009 { 2 0 6 -2.26788902 } { 2 0 5 -2.88107395 } 11 -5.14896297 } { 1 2 0 6.5 { 2 0 6 -1.30659807 } { 2 0 5 -2.48253894 } 11 -3.78913689 } 22 -8.93809891 } 43 -14.4463587 } 54 -20.2804604 } { 1 2 1 2.06640601 { 2 0 7 -0.606319427 } { 1 2 1 2.42078161 { 2 0 5 -3.06035423 } { 1 2 0 7.5 { 1 2 1 3.22186995 { 1 2 2 5.64900589 { 2 0 8 -1.67925143 } { 2 0 5 -1.66528296 } 13 -3.3445344 } { 2 0 5 -0.714290261 } 18 -4.05882454 } { 2 0 8 -3.60060549 } 26 -7.6594305 } 31 -10.7197828 } 38 -11.3261023 } 92 -31.6065617 } 102 -38.8670349 } { 1 2 0 4.5 { 1 2 0 3.5 { 2 0 7 -5.53540421 } { 2 0 8 -5.97844601 } 15 -11.5138493 } { 1 2 1 3.55805302 { 1 2 2 11.7695332 { 1 2 2 10.3730965 { 1 2 0 6.5 { 2 0 9 -6.16608906 } { 2 0 11 -6.13153553 } 20 -12.2976227 } { 1 2 1 2.43046403 { 2 0 8 -3.95054483 } { 2 0 10 -4.23147488 } 18 -8.18201923 } 38 -20.4796429 } { 1 2 0 7.5 { 1 2 1 3.13127565 { 2 0 5 -2.49620485 } { 2 0 6 -5.17359686 } 11 -7.66980124 } { 2 0 6 -5.22834206 } 17 -12.8981447 } 55 -33.3777847 } { 1 2 0 10.5 { 1 2 2 16.2979641 { 1 2 2 11.650279 { 2 0 6 -2.37027287 } { 1 2 2 13.7107153 { 2 0 5 -1.38611996 } { 2 0 9 -1.94553006 } 14 -3.33164978 } 20 -5.70192337 } { 2 0 6 -2.96596718 } 26 -8.66789055 } { 2 0 7 -4.34431219 } 33 -13.0122004 } 88 -46.3900032 } 103 -57.903862 } 205 -96.7708664 } '
p78
tp79
Rp80
(dp81
g7
g26
sg29
I1
sbag2
(S'1 -1 { 1 2 2 1.007177 { 2 0 5 -4.89464998 } { 1 2 0 3.5 { 1 2 1 1.20158505 { 2 0 6 -2.87602234 } { 1 2 1 1.60010302 { 2 0 6 -5.004179 } { 2 0 6 -2.95767903 } 12 -7.96185827 } 18 -10.8378811 } { 1 2 2 7.15995646 { 1 2 1 1.97903395 { 1 2 1 1.6268785 { 2 0 6 -2.11172342 } { 2 0 7 -1.22455859 } 13 -3.33628225 } { 1 2 2 3.32383609 { 1 2 2 2.70385933 { 2 0 5 -2.16349387 } { 2 0 6 -0.828559935 } 11 -2.99205399 } { 1 2 2 3.88096595 { 2 0 5 -3.21599698 } { 1 2 2 4.44595051 { 2 0 7 -1.87032986 } { 2 0 54 -22.6184673 } 61 -24.4888 } 66 -27.7047958 } 77 -30.696846 } 90 -34.0331306 } { 1 2 1 4.19907045 { 1 2 2 7.64646578 { 2 0 7 -6.04602337 } { 1 2 0 6.5 { 1 2 2 11.631958 { 2 0 9 -4.82555199 } { 2 0 16 -10.5531607 } 25 -15.3787146 } { 1 2 0 7.5 { 2 0 11 -4.92763186 } { 1 2 2 10.3395491 { 2 0 7 -4.12580681 } { 1 2 2 11.7695332 { 2 0 8 -3.63888526 } { 2 0 11 -5.76400852 } 19 -9.40289402 } 26 -13.5287008 } 37 -18.4563389 } 62 -33.8350372 } 69 -39.8810539 } { 1 2 1 5.6253643 { 1 2 1 4.97040701 { 2 0 5 -1.27569199 } { 2 0 5 -2.86168623 } 10 -4.13737822 } { 2 0 13 -3.02076864 } 23 -7.15814686 } 92 -47.0392113 } 182 -81.0723419 } 200 -91.9101562 } 205 -96.8048401 } '
p82
tp83
Rp84
(dp85
g7
g26
sg29
I1
sbag2
(S'1 -1 { 1 2 2 1.00511003 { 2 0 5 -4.89464998 } { 1 2 2 7.15995646 { 1 2 0 4.5 { 1 2 0 2.5 { 2 0 5 -2.80079699 } { 1 2 1 1.35172498 { 2 0 6 -1.22132766 } { 1 2 1 2.1910634 { 1 2 2 3.22253513 { 2 0 7 -2.76368093 } { 1 2 1 1.91521895 { 2 0 6 -3.984936 } { 2 0 7 -3.49096489 } 13 -7.47590017 } 20 -10.2395811 } { 2 0 5 -1.60387707 } 25 -11.8434591 } 31 -13.0647888 } 36 -15.8655834 } { 1 2 2 3.88096595 { 2 0 8 -4.80371618 } { 1 2 2 5.72715378 { 1 2 2 5.64900589 { 1 2 0 6.5 { 1 2 1 3.1506381 { 1 2 0 5.5 { 2 0 9 -1.85378802 } { 2 0 8 -2.60843897 } 17 -4.46222687 } { 2 0 5 -0.843391001 } 22 -5.30561829 } { 2 0 8 -3.01130128 } 30 -8.31691837 } { 2 0 11 -7.05342245 } 41 -15.3703375 } { 1 2 0 7.5 { 1 2 1 3.28240442 { 2 0 9 -1.40573621 } { 2 0 7 -1.46629119 } 16 -2.87202668 } { 2 0 7 -2.70909286 } 23 -5.58112049 } 64 -20.951458 } 72 -25.755167 } 108 -41.6207542 } { 2 0 92 -45.4309349 } 200 -87.0516586 } 205 -91.9463272 } '
p86
tp87
Rp88
(dp89
g7
g26
sg29
I1
sbag2
(S'1 -1 { 1 2 2 7.1732626 { 1 2 2 1.01021957 { 2 0 5 -3.65267015 } { 1 2 2 3.23857594 { 1 2 1 2.12883449 { 2 0 5 -1.94485295 } { 2 0 8 -0.861020982 } 13 -2.80587411 } { 1 2 1 2.3651495 { 2 0 32 -17.3770428 } { 1 2 2 4.3598156 { 2 0 5 -3.043257 } { 1 2 1 3.19648218 { 1 2 1 3.04693794 { 1 2 2 5.64943123 { 2 0 13 -4.2537179 } { 2 0 8 -3.9334476 } 21 -8.18716621 } { 2 0 7 -4.0119257 } 28 -12.199091 } { 1 2 1 4.25960732 { 1 2 1 3.61533451 { 2 0 5 -1.14884114 } { 2 0 5 -0.616332829 } 10 -1.76517391 } { 2 0 7 -3.1414361 } 17 -4.90661001 } 45 -17.1056976 } 50 -20.1489582 } 82 -37.5259895 } 95 -40.3318634 } 100 -43.9845352 } { 1 2 2 7.79086685 { 2 0 8 -7.17385817 } { 2 0 97 -48.7080536 } 105 -55.8819084 } 205 -99.8664017 } '
p90
tp91
Rp92
(dp93
g7
g26
sg29
I1
sbag2
(S'1 -1 { 1 2 1 5.6253643 { 1 2 2 7.1732626 { 1 2 1 1.42411256 { 1 2 2 3.81657743 { 2 0 8 -4.5709796 } { 2 0 6 -2.67458749 } 14 -7.2455678 } { 1 2 1 1.97668242 { 1 2 2 5.53966045 { 1 2 1 1.63482249 { 2 0 5 -1.23671758 } { 2 0 5 -1.98743403 } 10 -3.22415161 } { 2 0 5 -0.459279001 } 15 -3.68343067 } { 1 2 1 2.59839392 { 1 2 1 2.19854903 { 1 2 1 2.11662865 { 2 0 5 -2.6855619 } { 2 0 6 -3.49068689 } 11 -6.17624903 } { 1 2 0 5.5 { 1 2 1 2.34571981 { 2 0 6 -1.36089599 } { 2 0 8 -4.18790007 } 14 -5.5487957 } { 2 0 6 -3.34126902 } 20 -8.89006519 } 31 -15.0663118 } { 1 2 1 2.6431179 { 2 0 7 -1.03582907 } { 1 2 2 5.64900589 { 2 0 29 -9.42158222 } { 1 2 0 6.5 { 2 0 8 -3.92624593 } { 2 0 5 -2.30682778 } 13 -6.23307371 } 42 -15.6546545 } 49 -16.6904812 } 80 -31.756794 } 95 -35.4402275 } 109 -42.6857986 } { 1 2 0 4.5 { 2 0 8 -6.59693766 } { 1 2 2 20.4186649 { 2 0 72 -39.7108421 } { 2 0 6 -4.58320713 } 78 -44.2940483 } 86 -50.8909988 } 195 -93.5767822 } { 1 2 2 14.8859158 { 2 0 5 -1.58922589 } { 2 0 5 -1.14978528 } 10 -2.73901129 } 205 -96.3157654 } '
p94
tp95
Rp96
(dp97
g7
g26
sg29
I1
sbag2
(S'1 -1 { 1 2 0 16.5 { 1 2 0 5.5 { 2 0 76 -27.8248634 } { 1 2 0 6.5 { 2 0 36 -19.3808441 } { 1 2 1 3.75036097 { 1 2 2 11.681469 { 1 2 2 6.80522728 { 2 0 7 -4.71830893 } { 1 2 0 7.5 { 2 0 7 -2.8147378 } { 2 0 8 -3.96968889 } 15 -6.78442812 } 22 -11.502737 } { 2 0 7 -5.32364273 } 29 -16.8263798 } { 1 2 2 12.0783844 { 1 2 2 10.8527584 { 1 2 0 8.5 { 1 2 1 5.51029587 { 2 0 7 -1.91223574 } { 2 0 6 -1.55509782 } 13 -3.46733332 } { 1 2 2 7.13611221 { 1 2 2 5.68032074 { 2 0 5 -2.58361316 } { 2 0 6 -1.94713485 } 11 -4.53074789 } { 2 0 7 -5.27986479 } 18 -9.81061363 } 31 -13.2779446 } { 2 0 5 -3.565382 } 36 -16.8433266 } { 1 2 2 18.7214012 { 1 2 0 8.5 { 2 0 6 -0.842129946 } { 1 2 1 4.11271048 { 2 0 5 -1.848912 } { 2 0 6 -1.57686305 } 11 -3.42577481 } 17 -4.26790524 } { 2 0 6 -3.54428339 } 23 -7.81218815 } 59 -24.6555195 } 88 -41.4819069 } 124 -60.8627586 } 200 -88.6876373 } { 2 0 5 -4.79007435 } 205 -93.4776382 } '
p98
tp99
Rp100
(dp101
g7
g26
sg29
I1
sbag2
(S'1 -1 { 1 2 2 7.25642729 { 1 2 1 2.19854903 { 1 2 0 3.5 { 1 2 1 1.64454198 { 2 0 7 -3.87414336 } { 2 0 9 -6.30471706 } 16 -10.1788616 } { 1 2 1 1.97903395 { 2 0 16 -5.31714249 } { 1 2 2 4.44413996 { 2 0 5 -2.90160513 } { 2 0 6 -3.77003503 } 11 -6.67163992 } 27 -11.9887819 } 43 -22.1676445 } { 1 2 2 3.32383609 { 2 0 10 -1.41888082 } { 1 2 0 8.5 { 1 2 1 2.65731192 { 1 2 1 2.47886395 { 2 0 11 -4.839849 } { 1 2 0 5.5 { 2 0 5 -2.19568992 } { 2 0 5 -3.31130815 } 10 -5.50699806 } 21 -10.3468475 } { 1 2 2 5.69891548 { 1 2 0 6.5 { 1 2 2 5.64279699 { 1 2 2 5.59055519 { 2 0 5 -1.26293492 } { 2 0 5 -1.15929282 } 10 -2.42222786 } { 2 0 5 -1.95938993 } 15 -4.38161802 } { 2 0 7 -2.48238516 } 22 -6.8640027 } { 2 0 11 -2.19286513 } 33 -9.05687046 } 54 -19.4037094 } { 2 0 7 -3.77830911 } 61 -23.1820164 } 71 -24.6008911 } 114 -46.7685318 } { 1 2 1 3.91322041 { 1 2 0 4.5 { 1 2 2 12.1666698 { 2 0 7 -6.558918 } { 2 0 6 -3.64664483 } 13 -10.2055645 } { 1 2 1 3.49586105 { 2 0 40 -22.4705296 } { 1 2 1 3.55805302 { 2 0 5 -4.49620485 } { 2 0 6 -3.63383198 } 11 -8.13003635 } 51 -30.6005688 } 64 -40.8061295 } { 1 2 1 4.39660645 { 2 0 8 -1.99200892 } { 1 2 1 5.86809349 { 1 2 2 14.9360085 { 2 0 5 -3.39625788 } { 2 0 6 -2.74496698 } 11 -6.14122534 } { 2 0 8 -3.31415844 } 19 -9.45538425 } 27 -11.4473906 } 91 -52.2535324 } 205 -99.022049 } '
p102
tp103
Rp104
(dp105
g7
g26
sg29
I1
sbag2
(S'1 -1 { 1 2 2 7.1732626 { 1 2 2 5.56512737 { 1 2 2 4.43451643 { 1 2 2 1.00909901 { 2 0 5 -3.15169907 } { 1 2 2 1.01194251 { 2 0 5 -1.05586314 } { 1 2 1 2.25647998 { 1 2 1 1.99692297 { 1 2 2 3.23407745 { 2 0 9 -2.95760083 } { 2 0 5 -1.94568479 } 14 -4.9032855 } { 2 0 5 -3.05429697 } 19 -7.957582 } { 2 0 7 -1.75473702 } 26 -9.71232128 } 31 -10.7681837 } 36 -13.9198809 } { 1 2 1 2.58080101 { 1 2 0 3.5 { 2 0 5 -3.16575003 } { 2 0 6 -4.44454718 } 11 -7.61029673 } { 2 0 5 -1.97000813 } 16 -9.5803051 } 52 -23.5001888 } { 1 2 1 2.5010829 { 2 0 8 -1.04444993 } { 1 2 0 7.5 { 1 2 0 6.5 { 1 2 0 5.5 { 2 0 8 -2.86926985 } { 2 0 7 -2.41576862 } 15 -5.28503895 } { 1 2 1 3.57887697 { 2 0 5 -2.04254413 } { 2 0 6 -0.946054101 } 11 -2.98859811 } 26 -8.27363777 } { 1 2 2 6.89626026 { 2 0 5 -1.75985956 } { 2 0 8 -3.62392592 } 13 -5.38378572 } 39 -13.657423 } 47 -14.7018728 } 99 -38.2020531 } { 1 2 1 5.87902451 { 1 2 1 3.91981936 { 2 0 79 -49.660923 } { 2 0 21 -10.8538456 } 100 -60.5147705 } { 2 0 6 -1.48540759 } 106 -62.0001793 } 205 -100.202217 } '
p106
tp107
Rp108
(dp109
g7
g26
sg29
I1
sbag2
(S'1 -1 { 1 2 2 7.1732626 { 1 2 1 1.42628646 { 1 2 1 0.932485461 { 2 0 5 -1.43304014 } { 2 0 10 -6.27882481 } 15 -7.71186495 } { 1 2 1 3.20061493 { 1 2 0 7.5 { 1 2 2 3.23407745 { 1 2 2 2.08247089 { 2 0 7 -1.06949377 } { 2 0 5 -1.16256392 } 12 -2.23205781 } { 1 2 2 5.72715378 { 1 2 2 5.64900589 { 1 2 2 5.63767338 { 1 2 0 4.5 { 1 2 1 1.84495151 { 2 0 5 -3.32277679 } { 2 0 8 -3.36732316 } 13 -6.69009924 } { 1 2 0 5.5 { 1 2 1 2.31812501 { 2 0 7 -1.46663392 } { 2 0 7 -2.23141503 } 14 -3.69804883 } { 2 0 9 -4.56603193 } 23 -8.26408195 } 36 -14.9541817 } { 2 0 5 -0.422305226 } 41 -15.3764877 } { 2 0 10 -6.60765266 } 51 -21.9841385 } { 2 0 9 -1.52465594 } 60 -23.5087986 } 72 -25.7408485 } { 2 0 5 -3.31308985 } 77 -29.0539398 } { 1 2 1 4.25960732 { 1 2 1 3.28240442 { 2 0 6 -0.499173343 } { 2 0 8 -1.81672978 } 14 -2.31590319 } { 2 0 9 -3.99138713 } 23 -6.30729008 } 100 -35.3612251 } 115 -43.0730896 } { 1 2 1 3.63432264 { 1 2 2 11.7695332 { 1 2 0 5.5 { 2 0 10 -4.58958578 } { 1 2 1 2.44791007 { 2 0 14 -9.07436562 } { 1 2 2 8.03734684 { 2 0 5 -3.64721727 } { 2 0 15 -6.24740887 } 20 -9.89462757 } 34 -18.9689922 } 44 -23.5585804 } { 1 2 0 6.5 { 1 2 2 16.7725487 { 2 0 7 -4.18959188 } { 2 0 6 -4.32289124 } 13 -8.51248264 } { 2 0 5 -3.72953796 } 18 -12.2420216 } 62 -35.8005981 } { 1 2 0 8.5 { 2 0 11 -3.0331068 } { 1 2 1 5.6253643 { 1 2 2 12.1708431 { 2 0 5 -3.14479804 } { 2 0 7 -2.83033991 } 12 -5.97513866 } { 2 0 5 -0.669948637 } 17 -6.64508677 } 28 -9.67819405 } 90 -45.4787979 } 205 -88.551857 } '
p110
tp111
Rp112
(dp113
g7
g26
sg29
I1
sbag2
(S'1 -1 { 1 2 1 1.81215405 { 1 2 1 1.66618705 { 1 2 2 3.17814112 { 2 0 8 -4.35077763 } { 2 0 9 -3.73039865 } 17 -8.08117676 } { 2 0 9 -2.17707753 } 26 -10.258255 } { 1 2 0 7.5 { 1 2 1 2.63337445 { 1 2 0 5.5 { 1 2 2 7.25642729 { 2 0 38 -17.2442265 } { 1 2 2 11.5169678 { 2 0 8 -5.20555305 } { 2 0 5 -3.52260184 } 13 -8.72815514 } 51 -25.9723835 } { 2 0 14 -8.51900101 } 65 -34.4913788 } { 1 2 2 7.78528309 { 1 2 2 5.69891548 { 1 2 1 2.65966105 { 2 0 7 -1.61873293 } { 1 2 1 3.18606138 { 1 2 0 5.5 { 2 0 7 -3.39907503 } { 2 0 5 -2.24915886 } 12 -5.64823437 } { 2 0 6 -2.03029704 } 18 -7.67853165 } 25 -9.29726315 } { 2 0 7 -1.42610502 } 32 -10.7233677 } { 1 2 0 6.5 { 1 2 1 3.09173489 { 2 0 6 -1.86153603 } { 2 0 6 -3.73780084 } 12 -5.59933662 } { 2 0 8 -3.24927783 } 20 -8.84861374 } 52 -19.5719833 } 117 -54.0633736 } { 2 0 62 -33.7074432 } 179 -87.7708359 } 205 -98.0290909 } '
p114
tp115
Rp116
(dp117
g7
g26
sg29
I1
sbag2
(S'1 -1 { 1 2 2 7.1732626 { 1 2 2 1.00909901 { 2 0 5 -3.56937218 } { 1 2 0 8.5 { 1 2 0 3.5 { 2 0 19 -8.80675316 } { 1 2 0 6.5 { 1 2 1 2.52253294 { 1 2 2 1.59420753 { 2 0 5 -0.839699745 } { 2 0 26 -11.8915205 } 31 -12.7312212 } { 1 2 2 4.86586332 { 2 0 7 -1.3892349 } { 1 2 2 5.61628532 { 2 0 5 -1.91853404 } { 1 2 1 3.17327642 { 2 0 8 -2.18489075 } { 2 0 5 -1.62337494 } 13 -3.80826592 } 18 -5.72679949 } 25 -7.11603498 } 56 -19.8472538 } { 2 0 10 -2.413203 } 66 -22.2604561 } 85 -31.0672035 } { 1 2 1 4.14717579 { 2 0 9 -3.73579955 } { 2 0 7 -3.85313511 } 16 -7.58893538 } 101 -38.6561432 } 106 -42.225502 } { 1 2 1 3.58527446 { 1 2 2 11.7695332 { 1 2 1 3.21551657 { 1 2 0 4.5 { 2 0 5 -4.14554119 } { 1 2 1 2.82156801 { 1 2 1 2.23056102 { 2 0 5 -1.91861939 } { 1 2 2 11.0213566 { 2 0 7 -3.77116299 } { 2 0 5 -2.67614293 } 12 -6.44730568 } 17 -8.36592388 } { 2 0 6 -5.01957226 } 23 -13.385498 } 28 -17.5310345 } { 2 0 9 -4.25099802 } 37 -21.7820377 } { 1 2 1 3.09866714 { 1 2 1 2.96502209 { 2 0 15 -11.4808207 } { 2 0 5 -2.19076204 } 20 -13.6715832 } { 1 2 0 7.5 { 2 0 6 -5.03189182 } { 2 0 6 -5.62685776 } 12 -10.6587496 } 32 -24.3303299 } 69 -46.1123695 } { 1 2 2 18.7214012 { 1 2 0 10.5 { 1 2 0 8.5 { 2 0 5 -1.01611102 } { 1 2 1 4.38621521 { 2 0 5 -1.69954801 } { 2 0 5 -1.17703593 } 10 -2.87658405 } 15 -3.89269519 } { 2 0 5 -3.08680916 } 20 -6.97950411 } { 1 2 1 5.19519091 { 2 0 5 -2.75950527 } { 2 0 5 -3.19459009 } 10 -5.95409584 } 30 -12.9335976 } 99 -59.0459862 } 205 -101.271454 } '
p118
tp119
Rp120
(dp121
g7
g26
sg29
I1
sbag2
(S'1 -1 { 1 2 2 7.1732626 { 2 0 98 -40.329586 } { 2 0 107 -60.9979591 } 205 -101.32753 } '
p122
tp123
Rp124
(dp125
g7
g26
sg29
I1
sbag2
(S'1 -1 { 1 2 0 323.5 { 1 2 2 7.1732626 { 1 2 1 1.42628646 { 1 2 2 3.20421696 { 2 0 7 -3.47071409 } { 2 0 6 -3.96709609 } 13 -7.43781042 } { 1 2 0 8.5 { 1 2 1 2.86622763 { 1 2 2 4.4471283 { 1 2 2 3.88096595 { 1 2 1 2.12883449 { 1 2 1 1.81459355 { 2 0 8 -2.27036572 } { 2 0 8 -3.97452116 } 16 -6.24488688 } { 2 0 8 -1.3830775 } 24 -7.6279645 } { 2 0 9 -1.92825019 } 33 -9.55621529 } { 1 2 2 6.83608627 { 1 2 1 2.40567303 { 2 0 9 -5.04415989 } { 2 0 7 -4.35837317 } 16 -9.40253258 } { 2 0 6 -0.997284055 } 22 -10.3998165 } 55 -19.9560299 } { 1 2 1 2.95936012 { 2 0 5 -0.640426993 } { 2 0 19 -5.48860312 } 24 -6.12902927 } 79 -26.0850487 } { 1 2 2 4.53595734 { 2 0 6 -3.99674201 } { 2 0 7 -2.62974143 } 13 -6.62648296 } 92 -32.7115288 } 105 -40.1493416 } { 1 2 2 12.1666698 { 1 2 2 11.7885408 { 1 2 1 5.03186512 { 1 2 2 11.5169678 { 1 2 1 3.92500949 { 1 2 1 2.69842649 { 1 2 0 4.5 { 2 0 5 -3.95110703 } { 1 2 2 10.9293003 { 2 0 9 -5.59715939 } { 2 0 5 -3.5708549 } 14 -9.16801453 } 19 -13.1191206 } { 2 0 8 -3.83868504 } 27 -16.9578056 } { 2 0 7 -5.98327923 } 34 -22.9410858 } { 1 2 1 2.83237791 { 2 0 5 -1.82833302 } { 2 0 5 -2.09621501 } 10 -3.92454791 } 44 -26.8656349 } { 2 0 6 -1.95743585 } 50 -28.8230743 } { 2 0 6 -5.51017189 } 56 -34.3332481 } { 1 2 1 3.91322041 { 1 2 0 5.5 { 2 0 5 -3.31617117 } { 1 2 1 3.1679945 { 2 0 6 -2.10399795 } { 1 2 1 3.58527446 { 2 0 5 -3.99662495 } { 1 2 2 17.310936 { 2 0 5 -2.0395 } { 2 0 5 -2.84225702 } 10 -4.88175678 } 15 -8.87838268 } 21 -10.9823809 } 26 -14.2985516 } { 1 2 0 9.5 { 2 0 7 -1.92902803 } { 2 0 6 -2.00861096 } 13 -3.93763924 } 39 -18.2361908 } 95 -52.5694466 } 200 -92.7187653 } { 2 0 5 -5.36180019 } 205 -98.0805511 } '
p126
tp127
Rp128
(dp129
g7
g26
sg29
I1
sbag2
(S'1 -1 { 1 2 0 10.5 { 1 2 2 20.4186649 { 1 2 1 3.91322041 { 1 2 2 6.25363827 { 1 2 1 1.69134748 { 2 0 15 -8.79954624 } { 2 0 70 -29.0886517 } 85 -37.8882141 } { 1 2 1 3.58527446 { 1 2 2 15.7176628 { 2 0 44 -27.4673023 } { 2 0 5 -1.94720113 } 49 -29.4145069 } { 2 0 7 -3.06438303 } 56 -32.4788857 } 141 -70.3670959 } { 1 2 2 11.6083374 { 1 2 2 10.8527584 { 1 2 2 6.29026985 { 1 2 1 4.41005564 { 2 0 6 -2.32098913 } { 2 0 5 -1.95720196 } 11 -4.27819157 } { 2 0 7 -1.94375777 } 18 -6.2219491 } { 2 0 6 -4.05139494 } 24 -10.273344 } { 1 2 2 15.0270805 { 2 0 8 -1.91933405 } { 2 0 5 -0.65458703 } 13 -2.57392097 } 37 -12.8472633 } 178 -83.214325 } { 2 0 8 -5.79876518 } 186 -89.0131454 } { 1 2 2 9.19379234 { 1 2 2 6.50355196 { 2 0 5 -3.14308119 } { 2 0 7 -5.7907033 } 12 -8.93378448 } { 2 0 7 -3.4216671 } 19 -12.3554525 } 205 -101.368561 } '
p130
tp131
Rp132
(dp133
g7
g26
sg29
I1
sbag2
(S'1 -1 { 1 2 1 5.6253643 { 1 2 2 7.15995646 { 1 2 2 1.00909901 { 2 0 6 -5.0861001 } { 1 2 2 5.51199913 { 1 2 1 2.52320004 { 1 2 2 4.4471283 { 1 2 0 3.5 { 2 0 10 -3.9481864 } { 1 2 1 1.74686146 { 2 0 5 -1.43109155 } { 2 0 7 -3.17108512 } 12 -4.60217667 } 22 -8.55036354 } { 1 2 2 5.34826469 { 2 0 5 -3.27572417 } { 2 0 5 -3.59581566 } 10 -6.87154007 } 32 -15.4219027 } { 1 2 0 6.5 { 2 0 8 -2.18788075 } { 2 0 5 -2.23091412 } 13 -4.41879511 } 45 -19.8406963 } { 1 2 0 7.5 { 1 2 2 5.64943123 { 1 2 1 3.16914368 { 1 2 2 5.6356616 { 2 0 6 -1.28369701 } { 2 0 7 -0.624161839 } 13 -1.90785897 } { 2 0 9 -2.89516616 } 22 -4.80302477 } { 1 2 0 5.5 { 2 0 8 -3.75177264 } { 2 0 5 -2.50186801 } 13 -6.25364017 } 35 -11.0566645 } { 2 0 6 -2.65081549 } 41 -13.7074804 } 86 -33.5481796 } 92 -38.6342697 } { 1 2 2 14.9159451 { 1 2 0 10.5 { 1 2 2 11.5436106 { 1 2 2 10.9562025 { 1 2 2 7.72578812 { 2 0 5 -3.75239706 } { 1 2 1 3.21551657 { 1 2 2 9.042099 { 1 2 1 2.511168 { 2 0 6 -2.63957787 } { 2 0 6 -3.17501402 } 12 -5.81459188 } { 2 0 9 -5.84936523 } 21 -11.6639557 } { 2 0 9 -4.0862422 } 30 -15.7501974 } 35 -19.5025959 } { 2 0 5 -3.92273879 } 40 -23.4253349 } { 2 0 26 -11.5265398 } 66 -34.95187 } { 2 0 7 -5.23004532 } 73 -40.1819267 } { 1 2 2 20.4186649 { 1 2 0 6.5 { 2 0 9 -5.69765949 } { 2 0 8 -6.22436047 } 17 -11.92202 } { 2 0 5 -4.13881731 } 22 -16.0608368 } 95 -56.2427711 } 187 -94.8770523 } { 1 2 2 15.038167 { 2 0 12 -3.69806838 } { 2 0 6 -0.612726867 } 18 -4.31079531 } 205 -99.1878281 } '
p134
tp135
Rp136
(dp137
g7
g26
sg29
I1
sbag2
(S'1 -1 { 1 2 2 7.1732626 { 1 2 1 1.77224994 { 1 2 2 5.39705849 { 1 2 1 0.836616039 { 2 0 5 -3.44996595 } { 1 2 1 1.53847504 { 2 0 9 -3.29843116 } { 2 0 5 -2.287884 } 14 -5.58631563 } 19 -9.03628254 } { 2 0 7 -5.50684786 } 26 -14.543128 } { 1 2 0 7.5 { 1 2 2 5.61628532 { 1 2 1 2.19265151 { 2 0 8 -4.75639296 } { 1 2 2 4.39574528 { 1 2 0 3.5 { 2 0 7 -0.335922182 } { 2 0 5 -0.636972904 } 12 -0.972895086 } { 1 2 1 2.68628883 { 2 0 6 -3.56312013 } { 2 0 9 -2.99126124 } 15 -6.55438089 } 27 -7.52727652 } 35 -12.2836666 } { 1 2 2 5.64943123 { 1 2 2 5.63767338 { 2 0 9 -2.08018398 } { 2 0 7 -0.502987564 } 16 -2.58317161 } { 1 2 2 5.74965286 { 2 0 7 -2.89686894 } { 1 2 0 6 { 2 0 7 -1.74345994 } { 2 0 8 -1.29578519 } 15 -3.03924489 } 22 -5.93611431 } 38 -8.51928616 } 73 -20.8029518 } { 1 2 1 3.33738303 { 2 0 5 -3.31308985 } { 2 0 9 -4.25346422 } 14 -7.56655407 } 87 -28.3694992 } 113 -42.9126282 } { 2 0 92 -48.5300598 } 205 -91.4426804 } '
p138
tp139
Rp140
(dp141
g7
g26
sg29
I1
sbag2
(S'1 -1 { 2 0 205 -97.8937759 } '
p142
tp143
Rp144
(dp145
g7
g26
sg29
I1
sbag2
(S'1 -1 { 1 2 0 323.5 { 1 2 1 3.91981936 { 1 2 2 7.1732626 { 1 2 0 8 { 1 2 2 5.720191 { 1 2 2 4.41199446 { 1 2 2 3.18583107 { 1 2 1 1.57778358 { 2 0 5 -2.16460896 } { 2 0 7 -3.66893864 } 12 -5.83354807 } { 1 2 1 1.77302849 { 2 0 5 -2.63380098 } { 1 2 0 5.5 { 1 2 1 2.22851562 { 2 0 8 -0.825781286 } { 2 0 8 -1.50733805 } 16 -2.33311939 } { 2 0 6 -1.84450603 } 22 -4.17762566 } 27 -6.81142712 } 39 -12.6449766 } { 2 0 44 -22.3994884 } 83 -35.0444603 } { 1 2 1 2.42078161 { 2 0 5 -0.80107981 } { 2 0 7 -1.57713199 } 12 -2.37821198 } 95 -37.4226685 } { 2 0 7 -5.4710393 } 102 -42.8936958 } { 1 2 0 6.5 { 1 2 1 3.09173489 { 2 0 33 -19.2784462 } { 2 0 5 -4.45559025 } 38 -23.7340336 } { 1 2 1 3.43995857 { 1 2 2 9.15258217 { 2 0 6 -3.267138 } { 2 0 8 -3.83293605 } 14 -7.10007524 } { 2 0 10 -5.88671207 } 24 -12.9867868 } 62 -36.7208214 } 164 -79.6145096 } { 1 2 1 4.04738855 { 2 0 7 -0.757431149 } { 1 2 1 4.61254883 { 1 2 1 4.41005564 { 2 0 5 -2.75936604 } { 2 0 5 -3.1796627 } 10 -5.93902874 } { 1 2 0 10.5 { 1 2 1 5.13355064 { 2 0 6 -2.17833805 } { 2 0 5 -1.627051 } 11 -3.80538869 } { 2 0 8 -4.01075315 } 19 -7.81614256 } 29 -13.7551689 } 36 -14.5126028 } 200 -94.1271286 } { 2 0 5 -5.36180019 } 205 -99.4889069 } '
p146
tp147
Rp148
(dp149
g7
g26
sg29
I1
sbag2
(S'1 -1 { 1 2 2 735080192 { 1 2 2 1.00836992 { 2 0 5 -4.47697735 } { 1 2 1 5.6253643 { 1 2 2 5.64192772 { 1 2 0 3.5 { 1 2 1 1.06751251 { 2 0 5 -1.49038124 } { 1 2 1 1.69134748 { 2 0 6 -3.93759871 } { 2 0 8 -3.5881815 } 14 -7.5257802 } 19 -9.01616287 } { 1 2 1 2.33934736 { 2 0 17 -4.86825609 } { 1 2 2 4.35926104 { 2 0 5 -2.71318698 } { 1 2 1 3.62786007 { 2 0 15 -5.88998938 } { 1 2 0 8.5 { 2 0 7 -1.4641341 } { 2 0 7 -2.51520514 } 14 -3.97933936 } 29 -9.86932564 } 34 -12.5825119 } 51 -17.4507675 } 70 -26.4669304 } { 2 0 115 -63.8443489 } 185 -90.311264 } { 2 0 10 -2.69611478 } 195 -93.0073471 } 200 -97.4843369 } { 2 0 5 -4.82395506 } 205 -102.308296 } '
p150
tp151
Rp152
(dp153
g7
g26
sg29
I1
sbag2
(S'1 -1 { 1 2 2 7.1732626 { 1 2 2 1.00583899 { 2 0 5 -4.42750025 } { 1 2 0 7.5 { 1 2 1 2.59839392 { 1 2 2 5.74175835 { 1 2 1 2.40567303 { 1 2 1 2.19674706 { 1 2 2 5.39909697 { 1 2 1 1.95744097 { 1 2 1 1.59502196 { 2 0 7 -3.48587489 } { 2 0 7 -1.75699091 } 14 -5.24286604 } { 2 0 5 -3.06405807 } 19 -8.30692387 } { 2 0 8 -4.70968723 } 27 -13.0166101 } { 2 0 5 -1.11205792 } 32 -14.1286669 } { 2 0 5 -3.97341919 } 37 -18.1020889 } { 2 0 5 -0.641151607 } 42 -18.7432404 } { 1 2 2 5.64705086 { 1 2 1 3.04615402 { 1 2 2 4.42314816 { 2 0 8 -1.52194607 } { 2 0 5 -1.24387395 } 13 -2.7658205 } { 1 2 0 6.5 { 2 0 7 -1.82069099 } { 2 0 5 -1.84458113 } 12 -3.66527224 } 25 -6.43109179 } { 2 0 6 -2.82560515 } 31 -9.2566967 } 73 -27.9999371 } { 1 2 1 3.81163216 { 2 0 8 -5.53886223 } { 1 2 0 9.5 { 2 0 8 -3.00045419 } { 2 0 5 -2.42574811 } 13 -5.4262023 } 21 -10.965064 } 94 -38.9649925 } 99 -43.3924828 } { 1 2 1 3.66154385 { 1 2 0 6.5 { 1 2 1 3.16890502 { 1 2 1 2.94318342 { 1 2 1 2.34168148 { 1 2 0 4.5 { 1 2 1 1.82347798 { 2 0 5 -3.39193583 } { 2 0 7 -5.72726154 } 12 -9.11919689 } { 2 0 8 -5.29106712 } 20 -14.4102631 } { 2 0 5 -4.1607666 } 25 -18.5710316 } { 2 0 5 -1.96133709 } 30 -20.5323658 } { 2 0 7 -6.32842159 } 37 -26.8607845 } { 1 2 1 3.45071745 { 1 2 0 7.5 { 2 0 7 -2.908638 } { 1 2 1 3.19156504 { 2 0 6 -3.39165902 } { 2 0 6 -3.37770987 } 12 -6.76936913 } 19 -9.67800903 } { 2 0 5 -4.12805414 } 24 -13.8060627 } 61 -40.6668434 } { 1 2 0 7.5 { 1 2 0 6.5 { 2 0 7 -1.65781689 } { 2 0 6 -1.28777409 } 13 -2.9455905 } { 1 2 2 9.15908241 { 2 0 5 -4.05522537 } { 1 2 2 20.1076069 { 1 2 1 5.09351397 { 1 2 2 14.7690887 { 2 0 6 -3.18438816 } { 2 0 7 -5.02991199 } 13 -8.21430016 } { 2 0 8 -3.15529585 } 21 -11.3695974 } { 2 0 6 -2.285676 } 27 -13.6552725 } 32 -17.7104988 } 45 -20.6560879 } 106 -61.3229523 } 205 -104.715431 } '
p154
tp155
Rp156
(dp157
g7
g26
sg29
I1
sbag2
(S'1 -1 { 1 2 1 1.59038353 { 1 2 1 1.26916301 { 2 0 8 -6.1040988 } { 2 0 9 -6.00478888 } 17 -12.1088886 } { 1 2 2 5.64900589 { 1 2 1 2.17262053 { 1 2 1 2.03476644 { 1 2 2 4.83765316 { 2 0 6 -1.322837 } { 2 0 6 -2.36635351 } 12 -3.68919086 } { 2 0 6 -3.89426088 } 18 -7.58345127 } { 1 2 1 2.22851562 { 2 0 6 -0.376625896 } { 1 2 1 2.53648901 { 2 0 6 -3.10193682 } { 1 2 0 8 { 1 2 1 3.20061493 { 1 2 2 5.56512737 { 2 0 6 -2.32106209 } { 1 2 2 5.63185358 { 1 2 1 2.90414143 { 2 0 5 -1.23456502 } { 2 0 5 -1.62582111 } 10 -2.86038637 } { 2 0 7 -2.28992796 } 17 -5.15031481 } 23 -7.47137547 } { 2 0 8 -1.49033606 } 31 -8.96171188 } { 2 0 8 -3.58386111 } 39 -12.5455704 } 45 -15.6475086 } 51 -16.0241337 } 69 -23.6075802 } { 1 2 0 8.5 { 1 2 2 5.71926022 { 1 2 0 5.5 { 2 0 5 -3.20684195 } { 2 0 5 -3.41075397 } 10 -6.61759663 } { 1 2 0 7.5 { 1 2 1 3.63432264 { 1 2 2 7.1732626 { 2 0 7 -1.82056177 } { 1 2 1 2.19011354 { 2 0 9 -6.66888332 } { 1 2 2 10.9295835 { 2 0 7 -4.30476141 } { 1 2 1 3.09866714 { 1 2 2 11.7237301 { 2 0 6 -1.55690598 } { 2 0 9 -4.15155029 } 15 -5.70845556 } { 2 0 6 -3.88512802 } 21 -9.59358406 } 28 -13.898345 } 37 -20.5672245 } 44 -22.3877869 } { 2 0 7 -1.52884507 } 51 -23.9166336 } { 1 2 1 3.70485997 { 2 0 17 -11.3586388 } { 2 0 11 -5.3346715 } 28 -16.6933098 } 79 -40.6099434 } 89 -47.2275391 } { 1 2 2 11.5257025 { 1 2 0 9.5 { 2 0 5 -2.27034688 } { 2 0 8 -4.40001631 } 13 -6.67036343 } { 1 2 1 4.18684483 { 2 0 5 -2.61860466 } { 1 2 1 5.99731398 { 2 0 7 -1.59233606 } { 2 0 5 -1.4550122 } 12 -3.04734802 } 17 -5.66595364 } 30 -12.3363171 } 119 -59.5638618 } 188 -83.1714172 } 205 -95.2802963 } '
p158
tp159
Rp160
(dp161
g7
g26
sg29
I1
sbag2
(S'1 -1 { 1 2 1 1.26916301 { 2 0 6 -4.4819746 } { 1 2 2 3.23857594 { 1 2 1 2.1910634 { 1 2 1 1.89221954 { 2 0 6 -2.02778602 } { 2 0 5 -2.85945797 } 11 -4.88724422 } { 1 2 1 2.32168055 { 2 0 6 -0.406885982 } { 2 0 5 -1.62231994 } 11 -2.02920604 } 22 -6.91644907 } { 2 0 177 -86.3180618 } 199 -93.2345123 } 205 -97.7164841 } '
p162
tp163
Rp164
(dp165
g7
g26
sg29
I1
sbag2
(S'1 -1 { 1 2 0 5.5 { 1 2 2 11.7051239 { 1 2 2 8.54692459 { 1 2 2 5.61679363 { 1 2 2 4.4471283 { 1 2 0 3.5 { 2 0 9 -4.2048707 } { 1 2 2 2.70385933 { 2 0 11 -4.59433174 } { 1 2 2 3.33340454 { 2 0 5 -0.762780964 } { 2 0 6 -1.30828953 } 11 -2.07107019 } 22 -6.66540241 } 31 -10.8702736 } { 2 0 11 -6.5909214 } 42 -17.4611969 } { 1 2 2 6.38087845 { 2 0 12 -3.58950257 } { 2 0 5 -0.948768198 } 17 -4.53827047 } 59 -21.9994698 } { 2 0 10 -5.26516199 } 69 -27.2646294 } { 1 2 1 1.91351843 { 2 0 5 -3.39127707 } { 2 0 5 -4.47344971 } 10 -7.86472654 } 79 -35.1293488 } { 1 2 2 12.5198002 { 1 2 1 4.47685957 { 1 2 2 11.7885408 { 1 2 1 2.53115106 { 1 2 2 6.76041126 { 2 0 6 -4.39703321 } { 1 2 1 2.2628336 { 2 0 5 -3.30874205 } { 2 0 5 -3.21409988 } 10 -6.52284145 } 16 -10.9198751 } { 2 0 62 -31.8953323 } 78 -42.8152084 } { 2 0 6 -5.23306561 } 84 -48.0482941 } { 2 0 12 -4.25588799 } 96 -52.3041687 } { 1 2 2 18.7214012 { 1 2 1 3.7325654 { 2 0 7 -3.84080315 } { 1 2 2 14.9360085 { 2 0 5 -2.00008106 } { 2 0 7 -1.38358784 } 12 -3.38366866 } 19 -7.22447157 } { 1 2 1 4.39820385 { 2 0 5 -3.07100296 } { 2 0 6 -2.7645812 } 11 -5.83558464 } 30 -13.0600548 } 126 -65.3642426 } 205 -100.493584 } '
p166
tp167
Rp168
(dp169
g7
g26
sg29
I1
sbag2
(S'1 -1 { 1 2 0 323.5 { 1 2 2 7.1732626 { 1 2 2 6.87767315 { 2 0 92 -42.0587769 } { 1 2 1 3.95879555 { 2 0 6 -0.970554054 } { 2 0 5 -1.74236226 } 11 -2.71291661 } 103 -44.7716942 } { 1 2 1 5.6253643 { 1 2 2 7.72578812 { 2 0 5 -3.75440311 } { 1 2 1 2.02917004 { 2 0 7 -5.05212402 } { 1 2 0 5.5 { 2 0 7 -2.45508289 } { 1 2 2 11.6467047 { 1 2 2 9.042099 { 1 2 0 7.5 { 2 0 6 -2.90488982 } { 2 0 5 -3.07909298 } 11 -5.98398352 } { 1 2 0 6.5 { 2 0 6 -4.9925127 } { 2 0 9 -5.02136898 } 15 -10.0138826 } 26 -15.9978647 } { 1 2 1 4.97040701 { 1 2 2 17.9578323 { 1 2 1 3.92754889 { 1 2 1 3.13930249 { 1 2 1 3.05410552 { 2 0 7 -2.92860913 } { 2 0 5 -2.46568608 } 12 -5.39429522 } { 2 0 10 -6.4359498 } 22 -11.830245 } { 2 0 5 -0.941924989 } 27 -12.7721691 } { 2 0 7 -3.98108292 } 34 -16.7532539 } { 2 0 7 -4.65650845 } 41 -21.4097633 } 67 -37.4076271 } 74 -39.862709 } 81 -44.9148369 } 86 -48.6692505 } { 1 2 0 13 { 2 0 6 -1.33654118 } { 2 0 5 -2.74031401 } 11 -4.07685518 } 97 -52.7460976 } 200 -97.5177383 } { 2 0 5 -5.36180019 } 205 -102.879547 } '
p170
tp171
Rp172
(dp173
g7
g26
sg29
I1
sbag2
(S'1 -1 { 1 2 2 7.1732626 { 1 2 1 2.17262053 { 2 0 37 -17.738905 } { 1 2 1 2.35074902 { 1 2 2 3.21997952 { 2 0 7 -0.553721964 } { 2 0 5 -1.65230703 } 12 -2.20602894 } { 1 2 0 8.5 { 1 2 2 5.72715378 { 1 2 1 2.59839392 { 2 0 10 -6.62148094 } { 2 0 34 -10.1908016 } 44 -16.8122826 } { 1 2 1 2.81842399 { 2 0 5 -0.808030009 } { 2 0 5 -1.10348201 } 10 -1.9115119 } 54 -18.7237968 } { 1 2 2 4.53595734 { 2 0 6 -3.57193708 } { 2 0 6 -2.49246693 } 12 -6.06440449 } 66 -24.7881947 } 78 -26.9942188 } 115 -44.7331314 } { 1 2 1 4.44698334 { 1 2 2 7.73213196 { 2 0 6 -5.25006199 } { 1 2 2 9.042099 { 1 2 1 2.96434498 { 2 0 6 -2.43085957 } { 2 0 6 -3.48920369 } 12 -5.92006397 } { 1 2 2 11.7885408 { 2 0 27 -16.5208397 } { 1 2 1 3.6791985 { 1 2 2 12.1163731 { 2 0 5 -4.71016979 } { 1 2 2 14.9406815 { 2 0 7 -3.89329863 } { 2 0 9 -7.18355942 } 16 -11.0768585 } 21 -15.7870274 } { 2 0 6 -2.66939592 } 27 -18.4564228 } 54 -34.9772606 } 66 -40.8973351 } 72 -46.1474075 } { 2 0 18 -6.06752777 } 90 -52.2149429 } 205 -96.9480438 } '
p174
tp175
Rp176
(dp177
g7
g26
sg29
I1
sbag2
(S'1 -1 { 1 2 1 2.18020511 { 1 2 2 7.68082142 { 1 2 0 3.5 { 1 2 1 1.81835151 { 1 2 1 1.20158505 { 2 0 7 -3.32470655 } { 1 2 2 4.81550026 { 2 0 9 -5.8452754 } { 2 0 5 -3.38538599 } 14 -9.23066235 } 21 -12.5553675 } { 2 0 7 -3.05903888 } 28 -15.6144085 } { 1 2 2 5.74175835 { 1 2 2 4.4471283 { 2 0 17 -7.31436062 } { 2 0 5 -2.69103503 } 22 -10.005394 } { 2 0 5 -0.672213614 } 27 -10.6776085 } 55 -26.2920151 } { 1 2 0 4.5 { 1 2 2 12.1666698 { 2 0 9 -8.37761974 } { 2 0 5 -3.55127478 } 14 -11.9288931 } { 2 0 7 -4.97970486 } 21 -16.908596 } 76 -43.2006111 } { 1 2 2 7.15995646 { 1 2 2 5.72715378 { 1 2 2 4.41199446 { 1 2 2 3.88096595 { 1 2 1 2.35074902 { 2 0 7 -1.60041916 } { 2 0 5 -3.48092508 } 12 -5.08134413 } { 2 0 7 -1.21229696 } 19 -6.29364157 } { 1 2 2 4.8886652 { 2 0 5 -3.54622507 } { 1 2 1 3.190727 { 1 2 0 5.5 { 2 0 7 -2.71639776 } { 2 0 5 -2.863765 } 12 -5.580163 } { 2 0 5 -1.75125611 } 17 -7.33141899 } 22 -10.8776426 } 41 -17.1712837 } { 1 2 1 3.57887697 { 2 0 8 -0.90819639 } { 2 0 7 -1.62646747 } 15 -2.53466392 } 56 -19.7059441 } { 1 2 0 10.5 { 1 2 1 5.6253643 { 1 2 2 11.5165653 { 1 2 0 6.5 { 2 0 7 -4.52803898 } { 1 2 1 3.83987284 { 1 2 2 9.15258217 { 2 0 5 -2.17117095 } { 2 0 5 -2.48682284 } 10 -4.65799427 } { 2 0 8 -5.60390949 } 18 -10.2619038 } 25 -14.7899437 } { 1 2 0 7.5 { 1 2 2 14.857193 { 1 2 2 12.5812073 { 2 0 9 -3.97153902 } { 2 0 5 -1.64408505 } 14 -5.61562395 } { 2 0 7 -4.27437401 } 21 -9.88999748 } { 1 2 0 8.5 { 2 0 5 -3.30245495 } { 2 0 9 -4.08467913 } 14 -7.38713408 } 35 -17.2771301 } 60 -32.06707 } { 2 0 8 -1.78370523 } 68 -33.8507881 } { 2 0 5 -3.27429223 } 73 -37.1250648 } 129 -56.8310204 } 205 -100.031631 } '
p178
tp179
Rp180
(dp181
g7
g26
sg29
I1
sbag2
(S'1 -1 { 1 2 0 10.5 { 2 0 193 -86.727951 } { 1 2 1 4.19714069 { 2 0 5 -3.87957644 } { 2 0 7 -4.09741497 } 12 -7.97699165 } 205 -94.7049637 } '
p182
tp183
Rp184
(dp185
g7
g26
sg29
I1
sbag2
(S'1 -1 { 2 0 205 -103.014854 } '
p186
tp187
Rp188
(dp189
g7
g26
sg29
I1
sbag2
(S'1 -1 { 1 2 0 14.5 { 1 2 2 7.1732626 { 1 2 0 3.5 { 2 0 16 -8.67647552 } { 1 2 2 6.87767315 { 1 2 2 6.28355455 { 1 2 0 8.5 { 1 2 1 3.19648218 { 1 2 0 5.5 { 1 2 1 2.17851806 { 1 2 1 1.99692297 { 2 0 9 -2.60728478 } { 2 0 6 -3.39012599 } 15 -5.99741077 } { 1 2 1 2.64732361 { 2 0 9 -2.4371469 } { 2 0 6 -1.87478483 } 15 -4.31193161 } 30 -10.3093443 } { 1 2 2 5.64137506 { 2 0 12 -5.17176533 } { 2 0 6 -4.03277683 } 18 -9.20454311 } 48 -19.5138874 } { 2 0 9 -1.71597219 } 57 -21.2298546 } { 2 0 5 -2.700845 } 62 -23.9306965 } { 2 0 5 -3.07941103 } 67 -27.0101109 } { 2 0 9 -1.38809776 } 76 -28.3982048 } 92 -37.0746727 } { 2 0 107 -57.1989517 } 199 -94.2736588 } { 2 0 6 -4.8968401 } 205 -99.1704483 } '
p190
tp191
Rp192
(dp193
g7
g26
sg29
I1
sbag2
(S'1 -1 { 1 2 1 5.6253643 { 1 2 2 7.1732626 { 1 2 2 5.56512737 { 1 2 2 4.4471283 { 1 2 2 1.00909901 { 2 0 5 -3.54659033 } { 1 2 1 3.23040295 { 1 2 2 1.59420753 { 2 0 5 -0.735612094 } { 2 0 34 -15.5601158 } 39 -16.2957268 } { 2 0 7 -3.97462296 } 46 -20.2703457 } 51 -23.8169365 } { 1 2 2 4.8886652 { 2 0 6 -4.83140135 } { 1 2 2 5.50184298 { 2 0 5 -2.514781 } { 2 0 5 -2.66164303 } 10 -5.17642403 } 16 -10.0078249 } 67 -33.8247643 } { 1 2 1 2.06640601 { 2 0 8 -1.09834111 } { 1 2 2 5.64900589 { 1 2 2 5.63954163 { 1 2 2 5.63185358 { 2 0 6 -2.12320209 } { 2 0 5 -2.00794005 } 11 -4.13114214 } { 2 0 8 -0.729013324 } 19 -4.86015463 } { 1 2 0 5.5 { 2 0 6 -3.23655319 } { 2 0 9 -2.82782912 } 15 -6.06438255 } 34 -10.9245377 } 42 -12.0228796 } 109 -45.8476448 } { 1 2 2 20.4186649 { 1 2 2 7.72578812 { 2 0 6 -4.05716896 } { 1 2 2 9.042099 { 1 2 1 2.96434498 { 2 0 6 -1.40226018 } { 2 0 5 -2.86164498 } 11 -4.26390505 } { 1 2 1 3.67334199 { 1 2 2 11.7237301 { 2 0 24 -12.6964025 } { 1 2 2 12.1163731 { 2 0 6 -4.79184294 } { 1 2 1 2.63448381 { 2 0 9 -6.09543705 } { 2 0 9 -4.47725391 } 18 -10.572691 } 24 -15.3645363 } 48 -28.0609303 } { 1 2 2 11.650279 { 2 0 6 -3.62163401 } { 1 2 2 13.628355 { 2 0 5 -1.17089295 } { 2 0 10 -4.12764406 } 15 -5.29853725 } 21 -8.92017078 } 69 -36.9811058 } 80 -41.2450104 } 86 -45.3021927 } { 2 0 5 -4.10390282 } 91 -49.4060974 } 200 -95.2537308 } { 2 0 5 -0.809877396 } 205 -96.0635757 } '
p194
tp195
Rp196
(dp197
g7
g26
sg29
I1
sbag2
(S'1 -1 { 1 2 2 15.156395 { 1 2 0 7.5 { 1 2 2 7.1732626 { 1 2 0 3.5 { 1 2 1 1.20158505 { 2 0 5 -1.6880765 } { 1 2 2 5.31554317 { 2 0 8 -4.62223577 } { 2 0 6 -4.14762163 } 14 -8.76985836 } 19 -10.4579353 } { 1 2 1 1.97903395 { 1 2 2 3.82322836 { 2 0 8 -2.85455775 } { 2 0 9 -0.857897162 } 17 -3.71245503 } { 1 2 1 3.20061493 { 1 2 2 5.69891548 { 1 2 2 4.39659691 { 2 0 9 -2.25537801 } { 1 2 1 2.61668396 { 2 0 8 -4.66338968 } { 1 2 1 2.6431179 { 2 0 6 -1.20297003 } { 1 2 1 2.72710991 { 2 0 5 -2.51515818 } { 2 0 8 -2.58270979 } 13 -5.09786844 } 19 -6.30083847 } 27 -10.9642286 } 36 -13.2196054 } { 2 0 5 -0.927614033 } 41 -14.1472206 } { 2 0 8 -1.65999925 } 49 -15.8072195 } 66 -19.5196648 } 85 -29.977602 } { 2 0 36 -17.5652599 } 121 -47.5428772 } { 1 2 1 3.75036097 { 1 2 0 8.5 { 2 0 12 -6.98473835 } { 2 0 7 -5.21477842 } 19 -12.1995173 } { 1 2 2 7.15995646 { 2 0 16 -5.3306179 } { 1 2 2 12.0783844 { 1 2 0 10 { 2 0 5 -2.50469089 } { 2 0 8 -5.05377769 } 13 -7.55846882 } { 2 0 8 -2.44069386 } 21 -9.99916267 } 37 -15.3297777 } 56 -27.5292969 } 177 -75.0721817 } { 1 2 2 735080192 { 1 2 1 3.88184595 { 1 2 2 20.1076069 { 2 0 10 -6.68617916 } { 2 0 6 -2.46133113 } 16 -9.14750957 } { 2 0 7 -5.01729012 } 23 -14.1647997 } { 2 0 5 -4.82395506 } 28 -18.9887524 } 205 -94.0609055 } '
p198
tp199
Rp200
(dp201
g7
g26
sg29
I1
sbag2
(S'1 -1 { 1 2 0 3.5 { 2 0 25 -14.4088926 } { 1 2 0 7.5 { 1 2 1 3.70677996 { 1 2 0 5.5 { 1 2 1 2.19559455 { 1 2 1 1.954229 { 1 2 2 7.34253597 { 1 2 2 3.82322836 { 2 0 6 -3.02087092 } { 2 0 10 -1.16161966 } 16 -4.18249035 } { 2 0 6 -4.02135611 } 22 -8.20384598 } { 1 2 2 9.84834099 { 2 0 9 -4.37326145 } { 2 0 5 -4.11241198 } 14 -8.48567295 } 36 -16.689518 } { 1 2 2 4.41199446 { 2 0 9 -1.70111489 } { 1 2 2 5.65660858 { 2 0 14 -6.19303513 } { 1 2 1 2.46445036 { 2 0 7 -1.37323809 } { 2 0 5 -1.39690697 } 12 -2.77014518 } 26 -8.96317959 } 35 -10.6642942 } 71 -27.3538113 } { 1 2 1 2.4241364 { 2 0 9 -5.86381054 } { 1 2 2 8.61744881 { 1 2 0 6.5 { 1 2 1 2.72906256 { 2 0 6 -2.76707101 } { 2 0 9 -3.24529982 } 15 -6.01237059 } { 2 0 6 -1.72180605 } 21 -7.73417711 } { 1 2 2 13.296505 { 2 0 5 -2.40681505 } { 2 0 5 -3.01610303 } 10 -5.42291784 } 31 -13.157095 } 40 -19.0209045 } 111 -46.3747368 } { 2 0 9 -1.65605295 } 120 -48.0307846 } { 1 2 1 3.91847658 { 1 2 2 9.15908241 { 2 0 6 -4.20610285 } { 2 0 15 -8.52417946 } 21 -12.7302837 } { 1 2 0 8.5 { 2 0 11 -4.61018372 } { 1 2 1 4.90472794 { 1 2 2 11.461731 { 1 2 0 10.5 { 2 0 7 -3.89340997 } { 2 0 5 -2.62928343 } 12 -6.52269363 } { 2 0 5 -1.06716299 } 17 -7.58985662 } { 1 2 2 13.0863905 { 2 0 6 -3.12232304 } { 2 0 5 -3.40110302 } 11 -6.52342653 } 28 -14.1132803 } 39 -18.7234688 } 60 -31.4537468 } 180 -79.48452 } 205 -93.8933945 } '
p202
tp203
Rp204
(dp205
g7
g26
sg29
I1
sbag2
(S'1 -1 { 1 2 2 7.15995646 { 1 2 1 1.42628646 { 2 0 8 -5.14789343 } { 1 2 0 7.5 { 1 2 1 3.20061493 { 1 2 0 5.5 { 1 2 2 3.22253513 { 1 2 1 2.12883449 { 2 0 5 -1.56732905 } { 1 2 1 2.32168055 { 2 0 6 -0.394812971 } { 2 0 6 -0.79727006 } 12 -1.192083 } 17 -2.75941229 } { 1 2 0 4.5 { 1 2 1 2.05454898 { 1 2 2 3.82411337 { 2 0 5 -2.41406894 } { 2 0 5 -0.88095057 } 10 -3.29501963 } { 2 0 9 -4.7417593 } 19 -8.03677845 } { 1 2 2 5.64900589 { 1 2 1 2.44692087 { 2 0 6 -1.00584161 } { 2 0 5 -0.829205811 } 11 -1.8350476 } { 2 0 8 -3.96707988 } 19 -5.80212688 } 38 -13.8389053 } 55 -16.5983143 } { 2 0 26 -11.6652927 } 81 -28.263607 } { 1 2 1 3.3791604 { 2 0 7 -1.66832829 } { 2 0 7 -1.04777515 } 14 -2.71610308 } 95 -30.9796963 } { 1 2 1 3.27611208 { 2 0 5 -3.31308985 } { 2 0 9 -4.01897717 } 14 -7.33206701 } 109 -38.3117828 } 117 -43.4596672 } { 1 2 1 5.02783489 { 1 2 1 2.02917004 { 2 0 6 -5.02394104 } { 1 2 1 2.22467136 { 1 2 1 2.19559455 { 2 0 6 -3.3870194 } { 2 0 5 -1.05813003 } 11 -4.44514942 } { 1 2 0 6.5 { 2 0 19 -12.9845524 } { 1 2 1 3.49496198 { 1 2 1 3.17788696 { 2 0 7 -3.71444106 } { 2 0 7 -2.9705267 } 14 -6.68496752 } { 1 2 1 3.66154385 { 2 0 6 -5.07008791 } { 1 2 1 4.37284899 { 2 0 11 -5.42857695 } { 2 0 5 -3.76005888 } 16 -9.18863487 } 22 -14.2587242 } 36 -20.9436951 } 55 -33.9282455 } 66 -38.3733978 } 72 -43.3973351 } { 1 2 0 8.5 { 2 0 6 -1.36377001 } { 2 0 10 -3.59307981 } 16 -4.9568491 } 88 -48.3541908 } 205 -91.8138275 } '
p206
tp207
Rp208
(dp209
g7
g26
sg29
I1
sbag2
(S'1 -1 { 1 2 1 1.80009341 { 1 2 2 1.00909901 { 2 0 5 -4.92134523 } { 1 2 1 1.45362759 { 1 2 2 5.44754601 { 2 0 5 -2.00138903 } { 2 0 5 -2.10048413 } 10 -4.1018734 } { 1 2 2 6.73443985 { 1 2 2 4.86429405 { 2 0 5 -2.4394269 } { 2 0 5 -3.243644 } 10 -5.68307018 } { 2 0 9 -7.44934893 } 19 -13.1324196 } 29 -17.2342949 } 34 -22.1556396 } { 1 2 2 7.1732626 { 1 2 2 6.83608627 { 1 2 0 7.5 { 1 2 1 2.73292446 { 1 2 0 5.5 { 1 2 2 5.56512737 { 2 0 24 -8.72451782 } { 1 2 1 2.46445036 { 2 0 7 -1.56759036 } { 2 0 6 -1.56370604 } 13 -3.13129663 } 37 -11.855814 } { 1 2 2 5.63007927 { 2 0 7 -2.8380959 } { 2 0 5 -3.08058906 } 12 -5.91868496 } 49 -17.774498 } { 1 2 1 3.030303 { 2 0 6 -0.64083761 } { 2 0 9 -2.96366119 } 15 -3.60449886 } 64 -21.3789921 } { 1 2 1 4.11220169 { 2 0 6 -3.82933474 } { 2 0 7 -2.85986328 } 13 -6.68919849 } 77 -28.0681915 } { 1 2 1 3.18314409 { 2 0 6 -0.997283995 } { 2 0 5 -1.59290099 } 11 -2.59018517 } 88 -30.6583786 } { 1 2 0 6.5 { 2 0 35 -21.3282261 } { 1 2 0 10.5 { 1 2 1 4.78880453 { 1 2 1 3.91981936 { 1 2 2 13.6075382 { 1 2 2 10.2743177 { 2 0 7 -3.08799934 } { 2 0 8 -4.07229328 } 15 -7.16029263 } { 2 0 6 -2.27185011 } 21 -9.43214226 } { 2 0 9 -1.62528396 } 30 -11.0574255 } { 2 0 12 -6.15745306 } 42 -17.2148781 } { 2 0 6 -4.16780138 } 48 -21.3826771 } 83 -42.7109146 } 171 -73.3692703 } 205 -95.5249176 } '
p210
tp211
Rp212
(dp213
g7
g26
sg29
I1
sbag2
(S'1 -1 { 1 2 2 7.1732626 { 1 2 1 1.066558 { 2 0 6 -4.01423597 } { 1 2 0 7.5 { 1 2 0 6.5 { 1 2 2 5.72715378 { 1 2 2 5.64900589 { 1 2 1 2.19265151 { 1 2 1 1.95744097 { 1 2 1 1.881935 { 1 2 0 3.5 { 2 0 8 -3.63242173 } { 2 0 8 -2.72693539 } 16 -6.35935783 } { 2 0 6 -1.08668602 } 22 -7.44604349 } { 2 0 11 -7.04295397 } 33 -14.4889984 } { 1 2 1 2.22851562 { 2 0 6 -0.509064913 } { 1 2 1 2.51537752 { 2 0 9 -4.03945303 } { 1 2 0 5.5 { 2 0 5 -0.507048786 } { 2 0 6 -1.41448069 } 11 -1.92152965 } 20 -5.96098185 } 26 -6.47004652 } 59 -20.9590473 } { 2 0 8 -5.11205721 } 67 -26.0711021 } { 2 0 6 -0.711327374 } 73 -26.7824306 } { 1 2 2 5.69653511 { 2 0 5 -1.34453917 } { 2 0 5 -1.31039619 } 10 -2.65493536 } 83 -29.4373608 } { 1 2 2 6.20680428 { 2 0 7 -2.85986328 } { 2 0 7 -3.42787433 } 14 -6.28773737 } 97 -35.7250938 } 103 -39.7393341 } { 1 2 2 7.56330109 { 2 0 5 -4.20683575 } { 1 2 1 5.6253643 { 1 2 0 8.5 { 1 2 0 7.5 { 1 2 1 2.45575953 { 1 2 0 4.5 { 2 0 9 -5.89135504 } { 1 2 0 5.5 { 2 0 5 -2.87349892 } { 1 2 2 11.0442905 { 2 0 6 -3.78327703 } { 2 0 5 -3.27623487 } 11 -7.05951118 } 16 -9.93300915 } 25 -15.8243637 } { 1 2 1 3.05410552 { 2 0 7 -2.55439115 } { 1 2 1 3.34939003 { 2 0 5 -3.70208001 } { 2 0 11 -4.70008373 } 16 -8.40216446 } 23 -10.9565554 } 48 -26.7809181 } { 1 2 2 10.9600782 { 2 0 5 -2.73885489 } { 2 0 7 -5.5481596 } 12 -8.28701496 } 60 -35.0679398 } { 1 2 2 14.8557014 { 1 2 2 10.8165903 { 2 0 5 -3.03698897 } { 2 0 11 -4.34547329 } 16 -7.38246202 } { 2 0 7 -4.35739136 } 23 -11.739852 } 83 -46.8078079 } { 1 2 2 14.8859158 { 2 0 5 -1.88996303 } { 2 0 9 -1.35005474 } 14 -3.24001765 } 97 -50.0478134 } 102 -54.2546539 } 205 -93.9939651 } '
p214
tp215
Rp216
(dp217
g7
g26
sg29
I1
sbag2
(S'1 -1 { 1 2 2 16.7725487 { 1 2 0 10.5 { 1 2 2 7.1732626 { 1 2 1 2.19265151 { 1 2 2 5.61679363 { 1 2 2 3.22253513 { 1 2 2 1.01043701 { 2 0 5 -1.98127389 } { 2 0 6 -2.52467489 } 11 -4.50594854 } { 1 2 1 1.60523343 { 2 0 11 -5.97907305 } { 2 0 8 -5.37217474 } 19 -11.3512478 } 30 -15.8571968 } { 2 0 5 -1.39807963 } 35 -17.2552776 } { 1 2 0 7.5 { 1 2 2 4.41199446 { 1 2 0 4.5 { 1 2 1 2.26194763 { 2 0 5 -0.42323631 } { 2 0 5 -0.586346865 } 10 -1.00958312 } { 2 0 5 -0.939013004 } 15 -1.948596 } { 2 0 46 -16.1092587 } 61 -18.0578556 } { 1 2 2 5.67976809 { 2 0 5 -3.1271379 } { 2 0 10 -4.7747941 } 15 -7.90193176 } 76 -25.9597874 } 111 -43.2150574 } { 1 2 1 3.55805302 { 1 2 2 7.84401798 { 2 0 6 -5.26734877 } { 2 0 38 -21.6078339 } 44 -26.8751793 } { 1 2 2 11.6083374 { 2 0 9 -4.21724987 } { 1 2 2 12.1919689 { 2 0 7 -1.52405691 } { 1 2 0 9.5 { 2 0 7 -1.93435705 } { 2 0 7 -2.88520288 } 14 -4.81956005 } 21 -6.34361696 } 30 -10.5608673 } 74 -37.436058 } 185 -80.6510773 } { 2 0 6 -5.46093798 } 191 -86.1119919 } { 1 2 0 5 { 2 0 5 -3.44063306 } { 2 0 9 -7.44360542 } 14 -10.8842382 } 205 -96.9962769 } '
p218
tp219
Rp220
(dp221
g7
g26
sg29
I1
sbag2
(S'1 -1 { 1 2 1 0.346829504 { 2 0 6 -6.43416023 } { 1 2 1 3.75673747 { 1 2 2 11.7237301 { 1 2 0 5.5 { 1 2 2 4.4471283 { 1 2 1 2.18516588 { 1 2 2 4.33761024 { 1 2 2 3.21086168 { 1 2 1 1.51251101 { 2 0 5 -3.30723906 } { 2 0 7 -3.52545094 } 12 -6.83268976 } { 2 0 6 -2.76831889 } 18 -9.60100937 } { 2 0 7 -0.574448884 } 25 -10.1754589 } { 2 0 14 -1.63738155 } 39 -11.8128414 } { 1 2 1 2.09164667 { 1 2 0 3.5 { 2 0 8 -3.18146086 } { 2 0 8 -2.1200819 } 16 -5.30154276 } { 1 2 1 2.18020511 { 2 0 7 -4.97251511 } { 1 2 1 2.63337445 { 1 2 1 2.31811237 { 2 0 6 -2.14176011 } { 2 0 5 -3.65226388 } 11 -5.79402447 } { 2 0 7 -2.57476902 } 18 -8.36879253 } 25 -13.3413067 } 41 -18.6428471 } 80 -30.4556961 } { 1 2 1 2.53115106 { 1 2 2 5.0448904 { 2 0 6 -4.13367987 } { 2 0 8 -4.78748989 } 14 -8.92117023 } { 1 2 2 5.65720558 { 2 0 8 -2.79817677 } { 1 2 1 3.21720457 { 1 2 2 8.4084692 { 1 2 2 6.25363827 { 2 0 5 -2.67310786 } { 2 0 5 -3.64246416 } 10 -6.31557178 } { 2 0 8 -3.20004392 } 18 -9.51561546 } { 1 2 1 3.38175201 { 2 0 7 -2.89637327 } { 2 0 5 -2.21927595 } 12 -5.11564922 } 30 -14.6312647 } 38 -17.4294453 } 52 -26.3506145 } 132 -56.8062935 } { 1 2 1 3.20060301 { 1 2 1 2.60480142 { 2 0 6 -4.21929502 } { 2 0 5 -2.54444098 } 11 -6.76373625 } { 1 2 0 7 { 2 0 6 -5.78874588 } { 2 0 6 -4.91590214 } 12 -10.704648 } 23 -17.4683838 } 155 -74.2746735 } { 1 2 1 4.0734601 { 1 2 2 9.63489723 { 2 0 5 -0.701169848 } { 2 0 5 -1.72882593 } 10 -2.42999578 } { 1 2 1 4.29692841 { 2 0 6 -3.85745811 } { 1 2 0 8.5 { 2 0 9 -2.27735567 } { 1 2 1 4.90472794 { 2 0 9 -3.00587416 } { 2 0 10 -5.15350008 } 19 -8.15937424 } 28 -10.4367294 } 34 -14.2941895 } 44 -16.7241802 } 199 -90.9988708 } 205 -97.4330368 } '
p222
tp223
Rp224
(dp225
g7
g26
sg29
I1
sbag2
(S'1 -1 { 1 2 1 2.18416357 { 1 2 2 1.00938404 { 2 0 5 -4.92134523 } { 1 2 2 7.33574963 { 2 0 32 -15.5812769 } { 1 2 2 13.432415 { 1 2 0 4.5 { 2 0 6 -5.5729661 } { 2 0 6 -4.10357904 } 12 -9.67654514 } { 2 0 6 -4.40478992 } 18 -14.0813332 } 50 -29.6626072 } 55 -34.5839615 } { 2 0 150 -68.1228485 } 205 -102.706795 } '
p226
tp227
Rp228
(dp229
g7
g26
sg29
I1
sbag2
(S'1 -1 { 1 2 1 5.6253643 { 1 2 2 7.1732626 { 1 2 2 6.87767315 { 1 2 0 7.5 { 1 2 1 3.20061493 { 1 2 2 4.4471283 { 1 2 2 3.1491704 { 2 0 7 -3.16249561 } { 1 2 2 3.22253513 { 2 0 7 -0.875091255 } { 1 2 1 2.19854903 { 1 2 2 4.33761024 { 2 0 9 -4.81090784 } { 2 0 7 -1.84944654 } 16 -6.66035461 } { 2 0 7 -1.78791499 } 23 -8.44826984 } 30 -9.32336235 } 37 -12.4858589 } { 2 0 43 -23.9560452 } 80 -36.441925 } { 2 0 6 -1.23394108 } 86 -37.6758499 } { 2 0 8 -4.30686522 } 94 -41.9827232 } { 1 2 0 5.5 { 2 0 6 -1.12153196 } { 2 0 6 -1.85668206 } 12 -2.9782145 } 106 -44.9609299 } { 1 2 2 7.73213196 { 2 0 8 -6.76133585 } { 1 2 1 3.58527446 { 1 2 1 3.29177594 { 1 2 2 16.2710381 { 1 2 2 11.7237301 { 1 2 0 5.5 { 2 0 8 -3.24109387 } { 1 2 1 2.44791007 { 2 0 9 -5.73587513 } { 2 0 7 -3.38275123 } 16 -9.11862564 } 24 -12.3597212 } { 2 0 8 -5.28380537 } 32 -17.6435242 } { 2 0 6 -2.57262397 } 38 -20.2161484 } { 2 0 16 -11.3353691 } 54 -31.5515137 } { 1 2 1 4.39660645 { 1 2 1 3.91859603 { 2 0 8 -3.00009203 } { 2 0 7 -1.56059897 } 15 -4.56069088 } { 1 2 2 13.232769 { 2 0 9 -6.52236557 } { 2 0 6 -2.68306637 } 15 -9.20543194 } 30 -13.7661209 } 84 -45.3176308 } 92 -52.0789795 } 198 -97.0398865 } { 2 0 7 -1.7133491 } 205 -98.7532196 } '
p230
tp231
Rp232
(dp233
g7
g26
sg29
I1
sbag2
(S'1 -1 { 1 2 2 7.1732626 { 1 2 2 1.00909901 { 2 0 6 -4.2240591 } { 1 2 0 7.5 { 1 2 0 3.5 { 2 0 23 -11.6622505 } { 1 2 1 1.97903395 { 1 2 2 3.23407745 { 2 0 6 -1.32472897 } { 2 0 5 -0.8621611 } 11 -2.18689013 } { 1 2 0 6.5 { 1 2 1 2.48773694 { 1 2 1 2.22283196 { 1 2 1 2.16066313 { 2 0 7 -3.23600698 } { 2 0 5 -1.13189602 } 12 -4.36790276 } { 1 2 2 4.43479633 { 2 0 7 -3.82939219 } { 2 0 5 -2.34965515 } 12 -6.17904663 } 24 -10.5469494 } { 2 0 23 -7.40483236 } 47 -17.9517803 } { 2 0 7 -1.76482618 } 54 -19.7166042 } 65 -21.9034939 } 88 -33.5657425 } { 1 2 2 3.94128299 { 2 0 6 -3.66667199 } { 2 0 9 -4.58102512 } 15 -8.24769688 } 103 -41.8134346 } 109 -46.037487 } { 1 2 1 5.86809349 { 1 2 2 7.85067368 { 2 0 11 -8.85901642 } { 1 2 0 8.5 { 1 2 0 4.5 { 2 0 7 -5.09612131 } { 1 2 2 15.7176628 { 1 2 2 9.042099 { 2 0 9 -4.44154549 } { 1 2 2 10.3122444 { 2 0 7 -5.41670084 } { 1 2 1 3.49519396 { 1 2 1 2.19011354 { 2 0 7 -4.96021271 } { 1 2 2 11.7237301 { 2 0 7 -2.98278093 } { 2 0 6 -3.65208292 } 13 -6.63486433 } 20 -11.5950766 } { 2 0 8 -6.72486782 } 28 -18.3199444 } 35 -23.7366467 } 44 -28.1781883 } { 2 0 12 -5.3919096 } 56 -33.5700989 } 63 -38.6662292 } { 1 2 2 13.7752113 { 2 0 8 -3.21967316 } { 2 0 6 -3.68756628 } 14 -6.90723896 } 77 -45.5734558 } 88 -54.4324875 } { 2 0 8 -2.02064061 } 96 -56.4531288 } 205 -102.490623 } '
p234
tp235
Rp236
(dp237
g7
g26
sg29
I1
sbag2
(S'1 -1 { 1 2 2 7.1732626 { 1 2 2 4.33742619 { 1 2 1 1.26916301 { 2 0 5 -4.48331213 } { 1 2 0 4.5 { 1 2 1 1.64213109 { 2 0 5 -2.814744 } { 1 2 2 3.2273469 { 2 0 7 -2.3053267 } { 2 0 5 -2.18202901 } 12 -4.48735571 } 17 -7.3020997 } { 2 0 5 -2.80451298 } 22 -10.1066113 } 27 -14.5899258 } { 1 2 1 2.61668396 { 1 2 0 3 { 2 0 5 -3.04597092 } { 1 2 1 1.96020055 { 2 0 5 -0.427183092 } { 1 2 2 5.720191 { 1 2 2 5.00134754 { 2 0 10 -6.18541431 } { 2 0 6 -3.15853 } 16 -9.34394264 } { 2 0 6 -1.55187392 } 22 -10.8958187 } 27 -11.3230038 } 32 -14.3689728 } { 1 2 2 5.59085751 { 1 2 1 2.95936012 { 2 0 5 -0.672281027 } { 2 0 5 -1.25761914 } 10 -1.92990017 } { 1 2 2 5.61628532 { 2 0 6 -2.80182219 } { 1 2 2 5.64705086 { 2 0 10 -2.27811289 } { 1 2 1 3.14865756 { 2 0 7 -3.19275808 } { 1 2 1 4.14717579 { 2 0 5 -1.17190444 } { 2 0 5 -2.23482394 } 10 -3.40672851 } 17 -6.59948635 } 27 -8.87759972 } 33 -11.6794214 } 43 -13.6093206 } 75 -27.9782906 } 102 -42.568222 } { 1 2 1 5.6253643 { 1 2 2 20.4186649 { 1 2 2 12.1666698 { 1 2 2 11.7885408 { 1 2 2 11.5169678 { 1 2 1 4.00092363 { 1 2 0 6.5 { 1 2 1 2.82156801 { 1 2 0 5.5 { 2 0 10 -5.81323719 } { 2 0 6 -3.4930501 } 16 -9.30628777 } { 2 0 5 -3.94158292 } 21 -13.2478685 } { 1 2 2 10.4004021 { 2 0 10 -5.22453928 } { 2 0 5 -3.07465482 } 15 -8.29919434 } 36 -21.5470581 } { 2 0 8 -6.29580307 } 44 -27.842865 } { 1 2 1 2.43046403 { 2 0 5 -2.42842484 } { 2 0 7 -2.68851995 } 12 -5.11694479 } 56 -32.9598122 } { 2 0 9 -8.3836174 } 65 -41.3434448 } { 1 2 1 3.70485997 { 2 0 15 -9.82534218 } { 2 0 9 -2.62567091 } 24 -12.4510145 } 89 -53.7944603 } { 2 0 5 -4.13881731 } 94 -57.9332771 } { 2 0 9 -2.15477228 } 103 -60.0880508 } 205 -102.656212 } '
p238
tp239
Rp240
(dp241
g7
g26
sg29
I1
sbag2
(S'1 -1 { 1 2 2 1.00511003 { 2 0 5 -4.89464998 } { 1 2 2 7.1732626 { 1 2 0 8.5 { 2 0 96 -36.9247551 } { 1 2 1 3.81163216 { 2 0 5 -3.90788507 } { 2 0 7 -2.80747366 } 12 -6.71535921 } 108 -43.6401138 } { 1 2 2 7.73213196 { 2 0 8 -7.25892878 } { 1 2 1 5.86809349 { 1 2 2 14.8722649 { 1 2 2 12.540617 { 1 2 0 5.5 { 2 0 9 -3.3909483 } { 2 0 39 -20.9557743 } 48 -24.3467236 } { 1 2 1 3.51477385 { 2 0 5 -2.58617401 } { 2 0 9 -2.76818705 } 14 -5.35436106 } 62 -29.7010822 } { 1 2 0 7.5 { 2 0 8 -5.51065445 } { 2 0 7 -5.83568192 } 15 -11.3463383 } 77 -41.0474319 } { 2 0 7 -1.52449632 } 84 -42.5719223 } 92 -49.8308678 } 200 -93.4709167 } 205 -98.3656006 } '
p242
tp243
Rp244
(dp245
g7
g26
sg29
I1
sbag2
(S'1 -1 { 1 2 2 7.15995646 { 1 2 0 9.5 { 1 2 1 0.731402516 { 2 0 5 -0.176132992 } { 1 2 2 5.720191 { 1 2 1 2.60621643 { 1 2 2 4.4471283 { 1 2 2 3.20420456 { 1 2 1 1.56806397 { 2 0 6 -3.03110313 } { 1 2 1 2.07569647 { 2 0 5 -1.76757205 } { 2 0 6 -2.25209451 } 11 -4.01966667 } 17 -7.05076885 } { 1 2 1 2.24048185 { 1 2 1 1.65154696 { 2 0 7 -3.71106005 } { 2 0 8 -3.12498999 } 15 -6.83605003 } { 2 0 6 -3.64760303 } 21 -10.483654 } 38 -17.53442 } { 1 2 2 5.50388145 { 2 0 6 -4.69805002 } { 2 0 7 -3.8628459 } 13 -8.56089592 } 51 -26.095314 } { 1 2 0 5.5 { 2 0 12 -3.14051175 } { 2 0 22 -7.84591103 } 34 -10.9864206 } 85 -37.0817337 } { 2 0 12 -2.39475584 } 97 -39.47649 } 102 -39.6526222 } { 1 2 1 4.14717579 { 2 0 5 -3.64726758 } { 2 0 7 -3.91815209 } 12 -7.56541967 } 114 -47.2180519 } { 1 2 1 5.6253643 { 1 2 0 5.5 { 1 2 1 2.07217169 { 2 0 7 -5.39421415 } { 2 0 7 -5.00117731 } 14 -10.3953915 } { 1 2 2 20.4186649 { 1 2 2 10.3395491 { 2 0 18 -12.2547569 } { 2 0 48 -23.4004822 } 66 -35.6552429 } { 2 0 6 -5.24870682 } 72 -40.9039536 } 86 -51.2993469 } { 2 0 5 -0.960958123 } 91 -52.2603073 } 205 -99.478363 } '
p246
tp247
Rp248
(dp249
g7
g26
sg29
I1
sbag2
(S'1 -1 { 1 2 2 1.00695944 { 2 0 5 -4.42750025 } { 2 0 200 -87.5653534 } 205 -91.9928818 } '
p250
tp251
Rp252
(dp253
g7
g26
sg29
I1
sbag2
(S'1 -1 { 1 2 0 3.5 { 1 2 2 3.23837852 { 2 0 5 -3.28965187 } { 2 0 7 -4.33344603 } 12 -7.6230979 } { 1 2 0 7.5 { 1 2 2 8.54692459 { 1 2 1 3.22186995 { 1 2 2 5.72715378 { 1 2 1 2.19854903 { 1 2 2 3.23407745 { 2 0 11 -4.37786961 } { 2 0 9 -5.33409929 } 20 -9.71196842 } { 1 2 1 2.35074902 { 1 2 2 3.21697903 { 2 0 5 -0.612424791 } { 2 0 5 -1.19290507 } 10 -1.80532968 } { 1 2 0 5.5 { 1 2 1 2.61668396 { 2 0 5 -3.71146822 } { 2 0 15 -5.52626801 } 20 -9.23773479 } { 1 2 1 3.16914368 { 1 2 1 2.8233161 { 2 0 9 -3.49814796 } { 2 0 5 -1.20787692 } 14 -4.70602465 } { 2 0 5 -2.252105 } 19 -6.95812988 } 39 -16.1958675 } 49 -18.0011978 } 69 -27.7131615 } { 1 2 2 7.25642729 { 2 0 9 -1.43897176 } { 2 0 7 -2.99044013 } 16 -4.42941189 } 85 -32.1425667 } { 1 2 1 3.60024261 { 2 0 5 -0.800429225 } { 2 0 5 -1.11416399 } 10 -1.91459322 } 95 -34.0571671 } { 1 2 1 2.25427818 { 1 2 0 4.5 { 2 0 7 -5.48502398 } { 2 0 9 -6.12312126 } 16 -11.6081476 } { 1 2 2 12.7570438 { 1 2 1 2.45575953 { 2 0 7 -4.46455193 } { 2 0 9 -3.26328993 } 16 -7.72784185 } { 2 0 12 -8.4338932 } 28 -16.1617374 } 44 -27.7698765 } 139 -61.827076 } { 1 2 1 4.44698334 { 1 2 0 8.5 { 1 2 2 10.9600782 { 1 2 1 3.31640434 { 2 0 5 -2.79725003 } { 2 0 7 -3.16176701 } 12 -5.95901728 } { 2 0 10 -6.54203796 } 22 -12.5010538 } { 1 2 2 7.13611221 { 1 2 1 4.3360796 { 2 0 5 -2.79098606 } { 2 0 5 -3.04198503 } 10 -5.83297062 } { 2 0 6 -4.45259285 } 16 -10.2855625 } 38 -22.786623 } { 1 2 1 5.6253643 { 2 0 9 -3.41309214 } { 2 0 7 -2.16144109 } 16 -5.57453299 } 54 -28.3611546 } 193 -90.1882248 } 205 -97.8112946 } '
p254
tp255
Rp256
(dp257
g7
g26
sg29
I1
sbag2
(S'1 -1 { 1 2 2 7.1732626 { 1 2 2 1.00916648 { 2 0 6 -4.71790409 } { 1 2 0 3.5 { 1 2 2 2.09153247 { 2 0 5 -0.429143012 } { 2 0 15 -9.58376503 } 20 -10.012907 } { 1 2 2 5.64900589 { 1 2 2 5.63767338 { 1 2 2 3.23955297 { 1 2 2 2.70385933 { 2 0 6 -2.54886389 } { 2 0 7 -1.09465003 } 13 -3.64351416 } { 1 2 1 2.06073999 { 2 0 7 -1.72535753 } { 1 2 2 4.44215441 { 2 0 8 -4.64320087 } { 1 2 1 3.190727 { 2 0 8 -3.28386497 } { 2 0 5 -1.35470092 } 13 -4.63856602 } 21 -9.28176689 } 28 -11.0071249 } 41 -14.6506414 } { 2 0 8 -0.635262668 } 49 -15.2859058 } { 1 2 0 8.5 { 2 0 22 -10.0296021 } { 2 0 5 -1.78177547 } 27 -11.8113775 } 76 -27.0972786 } 96 -37.1101761 } 102 -41.8280716 } { 1 2 0 4.5 { 1 2 2 12.1666698 { 1 2 2 9.89163589 { 2 0 5 -3.5708251 } { 2 0 5 -4.47344971 } 10 -8.04427528 } { 2 0 8 -5.12936211 } 18 -13.1736374 } { 1 2 2 17.9578323 { 1 2 1 5.09351397 { 2 0 63 -32.756649 } { 2 0 9 -3.15325975 } 72 -35.9099045 } { 1 2 2 20.4186649 { 2 0 5 -3.47687483 } { 2 0 8 -6.63824987 } 13 -10.1151257 } 85 -46.0250435 } 103 -59.1986885 } 205 -101.026749 } '
p258
tp259
Rp260
(dp261
g7
g26
sg29
I1
sbag2
(S'1 -1 { 1 2 1 5.6253643 { 1 2 2 11.7885408 { 1 2 0 8.5 { 1 2 1 4.43360233 { 1 2 1 3.5848825 { 1 2 0 3.5 { 1 2 2 6.62817621 { 1 2 2 3.23837852 { 2 0 8 -4.75009346 } { 1 2 2 5.31554317 { 2 0 5 -2.05591893 } { 2 0 7 -3.86566234 } 12 -5.92158127 } 20 -10.6716757 } { 2 0 5 -3.49952197 } 25 -14.1711979 } { 1 2 0 6.5 { 1 2 1 2.09164667 { 1 2 1 1.59502196 { 2 0 6 -3.402915 } { 2 0 13 -3.59430695 } 19 -6.99722099 } { 1 2 2 4.41832161 { 1 2 1 2.47812057 { 2 0 5 -2.70764589 } { 2 0 6 -1.46543598 } 11 -4.17308187 } { 1 2 0 5.5 { 1 2 2 11.5169678 { 1 2 2 5.65650272 { 2 0 8 -5.67954302 } { 2 0 8 -4.10883999 } 16 -9.78838253 } { 2 0 6 -1.26975608 } 22 -11.0581408 } { 1 2 1 2.53115106 { 1 2 2 6.15586472 { 2 0 5 -3.46289396 } { 2 0 7 -4.74368477 } 12 -8.20657921 } { 1 2 2 5.6474762 { 2 0 6 -2.03890491 } { 2 0 9 -5.18015575 } 15 -7.2190609 } 27 -15.4256392 } 49 -26.4837837 } 60 -30.6568623 } 79 -37.6540756 } { 1 2 0 7.5 { 1 2 1 2.82200384 { 2 0 5 -0.779300034 } { 2 0 7 -2.85875392 } 12 -3.63805366 } { 2 0 8 -4.3259902 } 20 -7.96404409 } 99 -45.6181183 } 124 -59.7893105 } { 1 2 2 4.88667965 { 2 0 5 -1.14752996 } { 2 0 5 -1.06805491 } 10 -2.21558499 } 134 -62.0049133 } { 2 0 5 -3.86279392 } 139 -65.8677139 } { 1 2 2 9.15908241 { 2 0 6 -4.46327925 } { 2 0 7 -3.62761593 } 13 -8.0908947 } 152 -73.9585876 } { 1 2 0 4.5 { 1 2 1 1.91351843 { 2 0 5 -3.51239586 } { 2 0 7 -6.26282978 } 12 -9.77522469 } { 1 2 1 3.13127565 { 1 2 1 2.94499636 { 2 0 5 -2.98434496 } { 2 0 7 -2.58712077 } 12 -5.57146549 } { 1 2 1 3.55805302 { 2 0 8 -6.80987692 } { 1 2 1 4.38621521 { 2 0 5 -2.08664608 } { 2 0 6 -3.46705198 } 11 -5.55369806 } 19 -12.3635731 } 31 -17.9350395 } 43 -27.7102642 } 195 -101.668839 } { 1 2 2 15.0270805 { 2 0 5 -1.46170008 } { 2 0 5 -0.557248652 } 10 -2.01894855 } 205 -103.687813 } '
p262
tp263
Rp264
(dp265
g7
g26
sg29
I1
sbag2
(S'1 -1 { 1 2 2 7.1732626 { 1 2 2 1.00909901 { 2 0 6 -4.71790409 } { 1 2 1 1.26916301 { 2 0 6 -3.28436255 } { 1 2 0 5.5 { 1 2 0 3.5 { 2 0 9 -4.25309563 } { 1 2 1 2.40743542 { 1 2 2 4.35944462 { 1 2 1 2.17657089 { 2 0 6 -2.18420792 } { 2 0 7 -1.01226687 } 13 -3.19647503 } { 2 0 9 -1.24714172 } 22 -4.44361639 } { 1 2 1 2.63741446 { 2 0 7 -3.34373498 } { 1 2 1 2.65966105 { 2 0 6 -0.841142952 } { 2 0 6 -1.53183913 } 12 -2.37298203 } 19 -5.71671677 } 41 -10.1603327 } 50 -14.4134302 } { 2 0 46 -18.0189934 } 96 -32.4324226 } 102 -35.7167778 } 108 -40.4346886 } { 1 2 0 6.5 { 1 2 1 3.09173489 { 1 2 1 2.19011354 { 1 2 1 1.75633144 { 2 0 5 -2.9643178 } { 2 0 7 -5.1654954 } 12 -8.12981319 } { 1 2 2 15.4939384 { 2 0 10 -5.67293692 } { 2 0 5 -2.32842994 } 15 -8.00136662 } 27 -16.1311798 } { 2 0 5 -3.86933494 } 32 -20.0005112 } { 1 2 1 5.86809349 { 2 0 56 -29.1974983 } { 2 0 9 -2.21977353 } 65 -31.4172707 } 97 -51.4177933 } 205 -91.8524475 } '
p266
tp267
Rp268
(dp269
g7
g26
sg29
I1
sbag2
(S'1 -1 { 1 2 2 7.1732626 { 1 2 2 5.72715378 { 1 2 0 8.5 { 1 2 0 6.5 { 1 2 1 2.59839392 { 1 2 0 5.5 { 1 2 1 1.42628646 { 1 2 2 3.20421696 { 2 0 6 -2.67367196 } { 2 0 7 -4.5394249 } 13 -7.21309662 } { 2 0 39 -17.0176163 } 52 -24.2307148 } { 2 0 8 -5.34930849 } 60 -29.580019 } { 1 2 2 5.6474762 { 1 2 2 4.42314816 { 2 0 9 -2.05336499 } { 2 0 7 -2.0887022 } 16 -4.14206696 } { 2 0 6 -3.15072203 } 22 -7.29278994 } 82 -36.8728065 } { 2 0 5 -1.06936204 } 87 -37.9421616 } { 1 2 1 3.75036097 { 2 0 5 -4.48945141 } { 2 0 5 -2.42683911 } 10 -6.91629076 } 97 -44.858448 } { 1 2 1 2.67288494 { 2 0 5 -0.886289835 } { 1 2 1 3.89131117 { 2 0 7 -2.77183318 } { 2 0 6 -1.39239573 } 13 -4.16422892 } 18 -5.05051899 } 115 -49.9089661 } { 1 2 0 4.5 { 1 2 2 10.075346 { 2 0 6 -5.5315299 } { 2 0 8 -5.28935957 } 14 -10.8208885 } { 1 2 1 5.86809349 { 2 0 69 -36.5141563 } { 2 0 7 -1.63040507 } 76 -38.1445618 } 90 -48.9654579 } 205 -98.8744125 } '
p270
tp271
Rp272
(dp273
g7
g26
sg29
I1
sbag2
(S'1 -1 { 1 2 2 7.1732626 { 2 0 107 -42.5628242 } { 1 2 1 2.18020511 { 1 2 1 2.04748154 { 2 0 6 -5.27841711 } { 2 0 5 -3.53187108 } 11 -8.81028843 } { 1 2 2 10.3484116 { 1 2 2 7.87804127 { 2 0 6 -4.18530798 } { 1 2 1 2.82156801 { 2 0 10 -5.68030596 } { 2 0 8 -5.01225615 } 18 -10.6925611 } 24 -14.8778696 } { 1 2 1 3.91322041 { 1 2 2 11.7237301 { 2 0 8 -2.7908349 } { 1 2 2 12.1163731 { 2 0 5 -3.84980893 } { 1 2 1 3.13127565 { 1 2 2 12.7273693 { 2 0 7 -3.88969421 } { 2 0 5 -1.94241202 } 12 -5.83210564 } { 1 2 1 3.58527446 { 2 0 8 -5.82954931 } { 2 0 9 -4.44296122 } 17 -10.2725105 } 29 -16.1046181 } 34 -19.9544277 } 42 -22.7452641 } { 1 2 2 11.6083374 { 2 0 5 -2.53035212 } { 1 2 1 4.97040701 { 2 0 8 -2.00917602 } { 2 0 8 -3.75433207 } 16 -5.76350832 } 21 -8.29386044 } 63 -31.0391273 } 87 -45.9170036 } 98 -54.7272835 } 205 -97.2901077 } '
p274
tp275
Rp276
(dp277
g7
g26
sg29
I1
sbag2
(S'1 -1 { 1 2 1 2.19011354 { 1 2 2 7.33574963 { 2 0 37 -18.5809097 } { 1 2 2 12.1666698 { 2 0 12 -9.53739548 } { 2 0 7 -4.52856159 } 19 -14.065958 } 56 -32.646862 } { 1 2 1 5.86809349 { 1 2 2 7.15995646 { 1 2 0 7.5 { 1 2 1 3.19648218 { 1 2 2 4.42513371 { 1 2 1 2.32168055 { 2 0 5 -1.11092687 } { 2 0 8 -1.50833797 } 13 -2.61926508 } { 1 2 0 5.5 { 1 2 1 2.48773694 { 2 0 6 -3.56800222 } { 2 0 8 -2.56675386 } 14 -6.13475513 } { 1 2 1 2.72906256 { 2 0 7 -3.8625412 } { 2 0 6 -2.09944081 } 13 -5.96198225 } 27 -12.0967369 } 40 -14.7160015 } { 1 2 1 3.28533745 { 2 0 5 -0.237827405 } { 2 0 6 -1.42262709 } 11 -1.66045451 } 51 -16.3764572 } { 1 2 2 5.63386536 { 2 0 5 -2.95395803 } { 2 0 7 -3.26964211 } 12 -6.22360039 } 63 -22.6000538 } { 1 2 2 20.4186649 { 1 2 2 15.7176628 { 2 0 60 -33.5006218 } { 1 2 2 16.85923 { 2 0 5 -1.59061503 } { 2 0 5 -1.28715599 } 10 -2.8777709 } 70 -36.3783913 } { 2 0 7 -5.72801065 } 77 -42.1063995 } 140 -64.7064819 } { 2 0 9 -2.58505034 } 149 -67.2915421 } 205 -99.938385 } '
p278
tp279
Rp280
(dp281
g7
g26
sg29
I1
sbag2
(S'1 -1 { 1 2 1 2.19417405 { 1 2 2 9.84834099 { 1 2 1 1.26916301 { 2 0 6 -4.36523485 } { 1 2 1 1.898417 { 1 2 0 3.5 { 1 2 1 1.68670201 { 2 0 5 -1.87110281 } { 2 0 6 -3.05895686 } 11 -4.93005943 } { 2 0 11 -3.84890127 } 22 -8.77896118 } { 1 2 2 5.08011627 { 2 0 9 -5.80445719 } { 2 0 5 -1.71184051 } 14 -7.51629782 } 36 -16.2952614 } 42 -20.6604958 } { 1 2 1 2.04748154 { 1 2 2 16.2106323 { 2 0 5 -4.30067873 } { 2 0 7 -5.20446682 } 12 -9.50514507 } { 2 0 6 -4.2265501 } 18 -13.7316933 } 60 -34.392189 } { 1 2 1 2.22851562 { 2 0 8 -0.835940957 } { 1 2 1 3.91981936 { 1 2 0 5.5 { 1 2 1 2.59839392 { 1 2 1 2.3650775 { 2 0 8 -3.55497885 } { 2 0 5 -1.76709592 } 13 -5.32207489 } { 1 2 1 2.95936012 { 2 0 6 -0.755344927 } { 2 0 5 -1.82712007 } 11 -2.58246517 } 24 -7.90454006 } { 2 0 76 -38.4775238 } 100 -46.3820763 } { 1 2 1 4.0734601 { 2 0 9 -1.77636933 } { 1 2 2 11.6083374 { 1 2 1 4.61254883 { 1 2 2 6.26697826 { 2 0 5 -2.00859308 } { 2 0 5 -3.66081095 } 10 -5.66940403 } { 2 0 5 -1.74141192 } 15 -7.41081572 } { 1 2 2 14.9724798 { 2 0 7 -2.40208912 } { 2 0 6 -1.01138425 } 13 -3.41347361 } 28 -10.8242903 } 37 -12.6006575 } 137 -58.9827347 } 145 -59.8186722 } 205 -94.2108536 } '
p282
tp283
Rp284
(dp285
g7
g26
sg29
I1
sbag2
(S'1 -1 { 1 2 1 1.99528444 { 1 2 2 7.6744771 { 1 2 1 1.68407941 { 2 0 14 -9.61705303 } { 1 2 0 3.5 { 2 0 7 -3.57017899 } { 2 0 8 -1.77233827 } 15 -5.34251785 } 29 -14.9595709 } { 1 2 1 1.91351843 { 2 0 7 -5.02146864 } { 2 0 5 -4.47344971 } 12 -9.49491882 } 41 -24.4544868 } { 1 2 2 7.1732626 { 1 2 1 2.59839392 { 1 2 2 1.01289546 { 2 0 6 -1.36812174 } { 1 2 2 5.720191 { 1 2 1 2.40567303 { 1 2 2 3.22801065 { 2 0 6 -3.58211184 } { 2 0 13 -5.70921993 } 19 -9.29133034 } { 2 0 5 -3.97341919 } 24 -13.2647505 } { 2 0 5 -1.22228193 } 29 -14.4870338 } 35 -15.855155 } { 1 2 1 2.6431179 { 1 2 2 4.98309231 { 2 0 6 -1.23682404 } { 2 0 5 -0.827042997 } 11 -2.06386709 } { 1 2 0 7.5 { 2 0 28 -7.72953224 } { 1 2 2 6.83608627 { 1 2 0 8.5 { 2 0 5 -3.31308985 } { 2 0 5 -2.78077793 } 10 -6.09386873 } { 1 2 0 9 { 2 0 5 -1.51170993 } { 2 0 5 -1.2395153 } 10 -2.75122499 } 20 -8.84509563 } 48 -16.5746231 } 59 -18.6384907 } 94 -34.4936447 } { 1 2 1 3.66154385 { 1 2 1 3.45094967 { 1 2 2 7.71464443 { 2 0 5 -4.3220191 } { 1 2 2 11.5169678 { 1 2 2 8.63195419 { 2 0 5 -2.44352436 } { 2 0 9 -5.93740702 } 14 -8.38093185 } { 2 0 19 -9.24738216 } 33 -17.628315 } 38 -21.9503326 } { 2 0 5 -4.68482399 } 43 -26.6351547 } { 1 2 2 10.9353933 { 2 0 5 -1.61588788 } { 1 2 0 9.5 { 1 2 2 14.8757648 { 2 0 5 -3.23887491 } { 2 0 8 -3.15012884 } 13 -6.38900328 } { 2 0 9 -3.75462103 } 22 -10.1436243 } 27 -11.7595119 } 70 -38.3946648 } 164 -72.8883362 } 205 -97.3427582 } '
p286
tp287
Rp288
(dp289
g7
g26
sg29
I1
sbag2
(S'1 -1 { 1 2 2 7.1732626 { 1 2 1 1.72593641 { 1 2 1 1.13413596 { 2 0 7 -4.39197683 } { 1 2 0 3.5 { 2 0 6 -3.18992281 } { 2 0 5 -2.25590801 } 11 -5.44583082 } 18 -9.83780861 } { 1 2 1 4.25960732 { 1 2 1 2.19265151 { 1 2 1 2.04662347 { 1 2 0 3.5 { 2 0 5 -2.76881289 } { 1 2 2 5.63948441 { 2 0 7 -1.71430397 } { 2 0 5 -0.706327438 } 12 -2.42063165 } 17 -5.18944454 } { 2 0 8 -4.5681448 } 25 -9.75758934 } { 1 2 0 4.5 { 2 0 10 -0.782796979 } { 1 2 1 3.83003998 { 2 0 42 -13.8177376 } { 2 0 7 -0.969635844 } 49 -14.7873745 } 59 -15.5701714 } 84 -25.3277569 } { 2 0 10 -4.45410585 } 94 -29.7818623 } 112 -39.6196709 } { 1 2 1 3.58527446 { 1 2 2 11.7695332 { 1 2 0 6.5 { 1 2 1 2.48198414 { 1 2 0 5.5 { 2 0 6 -3.5396409 } { 2 0 9 -5.93754864 } 15 -9.47718811 } { 2 0 6 -4.50032806 } 21 -13.9775171 } { 2 0 12 -6.5341177 } 33 -20.5116348 } { 1 2 1 3.13127565 { 2 0 11 -7.60489178 } { 1 2 1 3.40529251 { 2 0 6 -5.50533581 } { 2 0 5 -4.42016697 } 11 -9.92550278 } 22 -17.5303936 } 55 -38.0420265 } { 1 2 0 10.5 { 1 2 1 5.6253643 { 2 0 24 -10.2966909 } { 2 0 6 -1.06536031 } 30 -11.3620501 } { 2 0 8 -5.06831789 } 38 -16.4303646 } 93 -54.4724007 } 205 -94.0920639 } '
p290
tp291
Rp292
(dp293
g7
g26
sg29
I1
sbag2
(S'1 -1 { 1 2 2 7.15995646 { 2 0 97 -40.342205 } { 1 2 0 6.5 { 1 2 2 16.7725487 { 1 2 1 2.96607995 { 1 2 1 2.19011354 { 1 2 1 1.75633144 { 2 0 6 -3.43034172 } { 2 0 10 -7.48700809 } 16 -10.9173517 } { 1 2 2 8.44249249 { 2 0 6 -4.43730402 } { 1 2 1 2.34168148 { 2 0 6 -3.00570178 } { 2 0 5 -2.69173288 } 11 -5.6974349 } 17 -10.1347399 } 33 -21.0520859 } { 2 0 7 -2.98924828 } 40 -24.0413322 } { 2 0 6 -4.79020882 } 46 -28.8315392 } { 1 2 2 12.6200743 { 1 2 1 3.39504719 { 1 2 1 3.09474087 { 1 2 1 2.79109192 { 2 0 5 -2.97596884 } { 2 0 5 -2.60030818 } 10 -5.57627678 } { 2 0 6 -2.53453207 } 16 -8.11080933 } { 1 2 2 11.4332438 { 1 2 2 10.3534489 { 2 0 9 -4.58850193 } { 2 0 5 -2.06528592 } 14 -6.65378761 } { 2 0 9 -7.26004028 } 23 -13.9138298 } 39 -22.0246334 } { 1 2 2 14.8658524 { 2 0 8 -2.48618174 } { 1 2 0 9.5 { 2 0 9 -4.50129175 } { 2 0 6 -2.10344219 } 15 -6.60473442 } 23 -9.09091473 } 62 -31.1155548 } 108 -59.9471169 } 205 -100.289291 } '
p294
tp295
Rp296
(dp297
g7
g26
sg29
I1
sbag2
(S'1 -1 { 1 2 2 7.1732626 { 1 2 2 5.7487216 { 1 2 1 1.42628646 { 2 0 7 -4.20742702 } { 1 2 2 5.64900589 { 1 2 0 3.5 { 1 2 2 3.76616454 { 2 0 7 -3.14924169 } { 2 0 6 -3.19528008 } 13 -6.34452105 } { 1 2 0 5.5 { 1 2 2 4.41199446 { 1 2 2 2.68733549 { 2 0 7 -2.38825893 } { 1 2 2 4.39537525 { 2 0 11 -2.22153592 } { 2 0 5 -0.55310297 } 16 -2.77463913 } 23 -5.16289902 } { 2 0 11 -3.52475405 } 34 -8.68765259 } { 1 2 1 2.68393993 { 2 0 6 -3.16623473 } { 1 2 0 8 { 2 0 11 -2.99937201 } { 2 0 5 -2.40273786 } 16 -5.4021101 } 22 -8.56834412 } 56 -17.2559967 } 69 -23.6005173 } { 2 0 9 -4.94289398 } 78 -28.5434055 } 85 -32.7508354 } { 1 2 1 3.28240442 { 2 0 9 -1.13169408 } { 2 0 7 -1.84386992 } 16 -2.97556376 } 101 -35.7263947 } { 1 2 2 11.5169678 { 1 2 2 7.73213196 { 2 0 6 -4.71495008 } { 1 2 2 11.4332438 { 1 2 2 10.3484116 { 1 2 2 7.96293354 { 2 0 5 -2.6219542 } { 1 2 2 9.67498684 { 1 2 1 2.82156801 { 2 0 6 -3.27620697 } { 2 0 6 -4.31405783 } 12 -7.59026432 } { 2 0 8 -4.43093586 } 20 -12.0212002 } 25 -14.6431551 } { 2 0 7 -2.95068479 } 32 -17.5938396 } { 2 0 5 -3.87096977 } 37 -21.4648094 } 43 -26.1797619 } { 1 2 1 3.91322041 { 1 2 2 11.5815754 { 2 0 8 -2.6720798 } { 2 0 29 -18.2893543 } 37 -20.9614353 } { 1 2 1 5.01358843 { 2 0 9 -2.00265384 } { 1 2 1 5.99731398 { 2 0 6 -3.64262581 } { 2 0 9 -2.71089125 } 15 -6.35351753 } 24 -8.35617161 } 61 -29.317606 } 104 -55.4973831 } 205 -91.2237549 } '
p298
tp299
Rp300
(dp301
g7
g26
sg29
I1
sbag2
(S'1 -1 { 1 2 2 7.1732626 { 1 2 1 1.26916301 { 2 0 10 -6.96288919 } { 2 0 97 -34.9931335 } 107 -41.9560127 } { 1 2 1 2.96607995 { 1 2 0 6.5 { 1 2 1 2.82156801 { 1 2 1 1.6507355 { 2 0 5 -4.28883791 } { 1 2 2 11.8198318 { 1 2 2 9.67110252 { 2 0 8 -4.10598993 } { 1 2 1 2.23683214 { 2 0 5 -3.53187084 } { 2 0 5 -2.91838193 } 10 -6.45025253 } 18 -10.5562429 } { 2 0 10 -7.88587666 } 28 -18.4421177 } 33 -22.7309532 } { 2 0 5 -4.49514008 } 38 -27.2260952 } { 1 2 0 7.5 { 2 0 5 -2.59098601 } { 2 0 6 -3.67428589 } 11 -6.26527262 } 49 -33.4913712 } { 1 2 1 5.86809349 { 1 2 0 7.5 { 1 2 1 3.28006268 { 2 0 7 -3.1413703 } { 2 0 7 -2.38044596 } 14 -5.5218153 } { 2 0 27 -15.1990633 } 41 -20.7208824 } { 2 0 8 -2.58436847 } 49 -23.3052521 } 98 -56.7966385 } 205 -98.7526398 } '
p302
tp303
Rp304
(dp305
g7
g26
sg29
I1
sbag2
(S'1 -1 { 1 2 2 1.00583899 { 2 0 5 -4.89464998 } { 2 0 200 -93.0209579 } 205 -97.9156265 } '
p306
tp307
Rp308
(dp309
g7
g26
sg29
I1
sbag2
(S'1 -1 { 1 2 2 7.1732626 { 1 2 1 1.066558 { 2 0 8 -5.79022884 } { 1 2 0 7.5 { 1 2 1 2.59839392 { 1 2 2 5.720191 { 1 2 2 4.4471283 { 1 2 1 2.22851562 { 1 2 2 3.15170002 { 1 2 1 1.56806397 { 2 0 5 -2.39919806 } { 2 0 5 -1.75952768 } 10 -4.15872574 } { 1 2 0 3.5 { 1 2 2 3.21978188 { 2 0 5 -0.637273252 } { 2 0 7 -3.73942661 } 12 -4.37669992 } { 2 0 6 -0.620095909 } 18 -4.99679661 } 28 -9.1555233 } { 2 0 6 -3.20865989 } 34 -12.3641825 } { 2 0 18 -11.5595589 } 52 -23.9237423 } { 2 0 7 -1.10813582 } 59 -25.0318775 } { 1 2 0 5.5 { 1 2 2 5.5964222 { 2 0 8 -0.938320041 } { 2 0 7 -1.62201595 } 15 -2.56033611 } { 2 0 23 -6.92503977 } 38 -9.48537445 } 97 -34.5172424 } { 1 2 1 3.75036097 { 2 0 5 -3.6699667 } { 2 0 9 -3.66697669 } 14 -7.33694458 } 111 -41.854187 } 119 -47.6444244 } { 1 2 1 3.58527446 { 1 2 0 6.5 { 1 2 2 11.5169678 { 1 2 2 9.042099 { 1 2 2 7.87804127 { 2 0 7 -5.25751019 } { 2 0 5 -2.54566288 } 12 -7.80317354 } { 2 0 8 -6.30345249 } 20 -14.1066275 } { 2 0 25 -14.0859737 } 45 -28.1926003 } { 2 0 19 -10.2236328 } 64 -38.4162254 } { 1 2 2 11.650279 { 2 0 6 -3.5838728 } { 1 2 2 14.8722649 { 2 0 7 -2.02459097 } { 2 0 9 -3.44854546 } 16 -5.47313643 } 22 -9.05700779 } 86 -47.4732399 } 205 -95.1176758 } '
p310
tp311
Rp312
(dp313
g7
g26
sg29
I1
sbag2
(S'1 -1 { 1 2 2 7.68082142 { 1 2 1 1.68407941 { 2 0 20 -11.1587629 } { 1 2 2 5.72715378 { 1 2 2 5.66623211 { 1 2 2 5.61628532 { 1 2 2 4.42133808 { 1 2 2 3.88096595 { 1 2 0 4.5 { 1 2 0 3.5 { 2 0 5 -2.36430192 } { 1 2 1 2.25626397 { 2 0 5 -1.77323294 } { 2 0 6 -1.09795976 } 11 -2.87119269 } 16 -5.23549509 } { 2 0 9 -5.58482027 } 25 -10.8203144 } { 2 0 7 -1.32796896 } 32 -12.1482821 } { 1 2 1 2.57845211 { 2 0 10 -7.34731483 } { 2 0 7 -3.31980395 } 17 -10.6671181 } 49 -22.8153973 } { 1 2 2 5.64943123 { 2 0 10 -2.59193158 } { 2 0 5 -2.05068398 } 15 -4.64261532 } 64 -27.4580116 } { 2 0 6 -3.99883413 } 70 -31.4568443 } { 1 2 0 7.5 { 1 2 1 2.21119452 { 2 0 5 -1.28978288 } { 2 0 8 -1.7861501 } 13 -3.07593298 } { 2 0 7 -3.31343341 } 20 -6.3893671 } 90 -37.8462181 } 110 -49.0049744 } { 1 2 1 3.58527446 { 1 2 2 11.7237301 { 1 2 2 7.95349026 { 2 0 5 -4.40208626 } { 1 2 2 10.3692207 { 1 2 2 9.042099 { 2 0 6 -2.80596018 } { 2 0 8 -5.38470554 } 14 -8.1906662 } { 1 2 2 10.9604816 { 2 0 5 -1.83746004 } { 1 2 2 11.5815754 { 2 0 5 -2.29497886 } { 2 0 5 -2.45496106 } 10 -4.74993992 } 15 -6.58739948 } 29 -14.7780657 } 34 -19.1801548 } { 1 2 0 7.5 { 1 2 2 20.1310616 { 1 2 1 2.13427949 { 2 0 8 -6.15758705 } { 1 2 2 12.7570438 { 2 0 5 -2.56657696 } { 2 0 8 -5.41111755 } 13 -7.97769308 } 21 -14.1352825 } { 2 0 6 -5.13852167 } 27 -19.2738037 } { 2 0 5 -4.26096201 } 32 -23.5347633 } 66 -42.7149162 } { 2 0 29 -13.1710615 } 95 -55.8859863 } 205 -104.890968 } '
p314
tp315
Rp316
(dp317
g7
g26
sg29
I1
sbag2
(S'1 -1 { 1 2 2 1.00938404 { 2 0 5 -4.48089027 } { 1 2 2 15.156395 { 1 2 1 2.52253294 { 1 2 0 5.5 { 1 2 2 11.7051239 { 1 2 1 1.8113755 { 1 2 0 3.5 { 1 2 1 1.23980904 { 2 0 6 -2.28157949 } { 2 0 5 -1.8671329 } 11 -4.14871264 } { 2 0 8 -3.65586519 } 19 -7.8045783 } { 1 2 2 5.720191 { 1 2 0 3.5 { 2 0 7 -4.68478584 } { 1 2 0 4.5 { 2 0 9 -4.83755207 } { 2 0 8 -4.47386312 } 17 -9.31141472 } 24 -13.9961996 } { 2 0 6 -2.22310615 } 30 -16.2193069 } 49 -24.0238895 } { 2 0 8 -5.78640509 } 57 -29.8102913 } { 1 2 2 5.66666317 { 2 0 6 -4.07495308 } { 2 0 6 -3.35069084 } 12 -7.42564297 } 69 -37.2359428 } { 1 2 0 7.5 { 1 2 2 5.64900589 { 1 2 0 5.5 { 1 2 1 2.65966105 { 2 0 6 -0.754676938 } { 2 0 8 -2.7422173 } 14 -3.49689388 } { 1 2 1 3.05901551 { 2 0 8 -1.72025788 } { 2 0 6 -2.03668618 } 14 -3.75694418 } 28 -7.25383759 } { 1 2 1 3.53994393 { 1 2 2 6.30959034 { 2 0 5 -2.756809 } { 2 0 9 -3.84207106 } 14 -6.59887981 } { 2 0 6 -1.246966 } 20 -7.84584665 } 48 -15.0996819 } { 1 2 2 12.1958303 { 1 2 1 4.94746447 { 1 2 0 10.5 { 1 2 2 10.9600782 { 1 2 1 3.81163216 { 1 2 2 8.03734684 { 2 0 9 -6.30539322 } { 2 0 5 -2.42396307 } 14 -8.72935677 } { 2 0 9 -3.63147998 } 23 -12.3608379 } { 2 0 7 -5.50100327 } 30 -17.8618374 } { 2 0 7 -5.00119209 } 37 -22.8630295 } { 2 0 8 -2.90827394 } 45 -25.7713089 } { 1 2 1 4.7589283 { 2 0 8 -2.51972198 } { 1 2 1 5.99731398 { 2 0 5 -1.91147506 } { 2 0 5 -2.20166898 } 10 -4.11314392 } 18 -6.63286686 } 63 -32.4041672 } 111 -47.5038719 } 180 -84.7397461 } { 1 2 1 3.1679945 { 2 0 5 -2.2687571 } { 1 2 1 3.70485997 { 2 0 6 -5.03047657 } { 2 0 9 -6.12082577 } 15 -11.1513023 } 20 -13.4200583 } 200 -98.1597672 } 205 -102.640678 } '
p318
tp319
Rp320
(dp321
g7
g26
sg29
I1
sbag2
(S'1 -1 { 1 2 2 7.1732626 { 1 2 1 1.42628646 { 1 2 1 0.932485461 { 2 0 5 -1.89023662 } { 2 0 12 -8.12274361 } 17 -10.0129795 } { 1 2 2 3.18836045 { 1 2 2 1.01194251 { 2 0 5 -1.62472165 } { 2 0 7 -4.21495199 } 12 -5.83967352 } { 2 0 75 -25.4674644 } 87 -31.3071442 } 104 -41.320118 } { 1 2 0 4.5 { 1 2 1 1.72623944 { 2 0 7 -4.404387 } { 1 2 2 7.79396629 { 2 0 5 -4.40778589 } { 2 0 6 -4.70796013 } 11 -9.11574554 } 18 -13.5201321 } { 1 2 1 3.67763853 { 1 2 1 3.13237047 { 1 2 0 6.5 { 2 0 22 -10.8952847 } { 2 0 7 -3.78491998 } 29 -14.6802053 } { 1 2 2 11.681469 { 2 0 9 -4.61794662 } { 1 2 0 6.5 { 2 0 5 -4.54054499 } { 2 0 5 -4.28223991 } 10 -8.82278442 } 19 -13.440732 } 48 -28.1209316 } { 1 2 2 11.6083374 { 1 2 1 5.03186512 { 2 0 6 -4.91699505 } { 2 0 5 -2.20015907 } 11 -7.11715412 } { 2 0 24 -8.02878571 } 35 -15.145936 } 83 -43.2668686 } 101 -56.7870064 } 205 -98.1070862 } '
p322
tp323
Rp324
(dp325
g7
g26
sg29
I1
sbag2
(S'1 -1 { 1 2 0 12 { 1 2 2 7.1732626 { 1 2 2 5.72715378 { 1 2 2 5.64900589 { 1 2 1 2.19265151 { 1 2 2 4.86004543 { 1 2 1 1.93540049 { 1 2 0 3.5 { 2 0 9 -4.45235586 } { 2 0 5 -2.43895411 } 14 -6.89131021 } { 2 0 6 -3.52741385 } 20 -10.418726 } { 2 0 6 -1.90212107 } 26 -12.3208485 } { 1 2 2 3.32383609 { 2 0 9 -1.74745119 } { 1 2 1 2.32356548 { 2 0 5 -2.36548114 } { 1 2 0 6.5 { 1 2 1 2.62694693 { 2 0 6 -1.83249295 } { 1 2 2 5.45019436 { 2 0 7 -1.8562808 } { 2 0 8 -1.13290501 } 15 -2.98918605 } 21 -4.82167816 } { 2 0 6 -2.25103307 } 27 -7.07271147 } 32 -9.43819237 } 41 -11.1856432 } 67 -23.506485 } { 1 2 1 2.67958736 { 2 0 8 -5.79280424 } { 2 0 5 -2.79505515 } 13 -8.58785915 } 80 -32.0943413 } { 2 0 24 -6.49565077 } 104 -38.5899849 } { 1 2 1 3.58527446 { 1 2 2 11.7237301 { 1 2 1 2.5964694 { 1 2 2 11.5169678 { 1 2 1 2.2628336 { 2 0 5 -2.72341204 } { 2 0 6 -3.67851186 } 11 -6.40192366 } { 2 0 7 -2.39515996 } 18 -8.7970829 } { 2 0 13 -8.70656776 } 31 -17.5036526 } { 1 2 1 3.09866714 { 1 2 1 2.94499636 { 1 2 0 5 { 2 0 5 -4.16678715 } { 2 0 5 -3.35208988 } 10 -7.51887703 } { 2 0 6 -2.05950093 } 16 -9.57837772 } { 1 2 2 14.0605412 { 2 0 5 -4.35332584 } { 2 0 6 -5.50392103 } 11 -9.8572464 } 27 -19.4356213 } 58 -36.93927 } { 1 2 2 11.6083374 { 2 0 9 -5.09287453 } { 1 2 2 17.4622536 { 1 2 0 8.5 { 2 0 7 -1.37781715 } { 1 2 2 13.628355 { 2 0 5 -1.52795005 } { 2 0 8 -2.67881012 } 13 -4.20675993 } 20 -5.58457661 } { 2 0 6 -2.83444929 } 26 -8.41902542 } 35 -13.5118999 } 93 -50.4511757 } 197 -89.0411758 } { 2 0 8 -5.48660421 } 205 -94.5277634 } '
p326
tp327
Rp328
(dp329
g7
g26
sg29
I1
sbag2
(S'1 -1 { 1 2 0 12 { 1 2 2 7.1732626 { 1 2 0 3.5 { 1 2 1 1.99528444 { 1 2 1 1.35941601 { 2 0 5 -2.11504841 } { 2 0 5 -3.06614184 } 10 -5.18119049 } { 2 0 6 -2.16570377 } 16 -7.34689426 } { 1 2 2 5.61628532 { 1 2 1 1.99692297 { 1 2 2 3.2105999 { 2 0 5 -1.82649684 } { 2 0 5 -1.46545923 } 10 -3.29195619 } { 1 2 1 2.20692396 { 2 0 8 -5.25128889 } { 1 2 2 4.41199446 { 1 2 2 3.8713975 { 2 0 5 -1.49877 } { 2 0 6 -1.48780596 } 11 -2.98657608 } { 2 0 9 -4.94624996 } 20 -7.93282604 } 28 -13.1841145 } 38 -16.4760723 } { 1 2 1 2.68661451 { 1 2 0 4.5 { 2 0 6 -0.762051225 } { 2 0 9 -2.02293181 } 15 -2.7849834 } { 1 2 1 3.1506381 { 1 2 1 2.827178 { 2 0 5 -2.43221211 } { 2 0 5 -1.95598698 } 10 -4.38819885 } { 1 2 0 8 { 1 2 2 5.63240623 { 2 0 5 -0.888765037 } { 2 0 7 -1.82294309 } 12 -2.71170807 } { 2 0 7 -2.87173605 } 19 -5.58344412 } 29 -9.97164345 } 44 -12.7566261 } 82 -29.2326889 } 98 -36.5795822 } { 1 2 1 5.6253643 { 1 2 0 4.5 { 2 0 14 -10.5032806 } { 1 2 2 20.4186649 { 1 2 0 9.5 { 1 2 2 12.7273693 { 1 2 2 8.03734684 { 2 0 7 -4.52645206 } { 1 2 0 7.5 { 1 2 1 2.19011354 { 2 0 10 -5.60147667 } { 1 2 2 10.9295835 { 2 0 8 -4.42702723 } { 2 0 9 -3.20479679 } 17 -7.63182545 } 27 -13.2333002 } { 2 0 15 -8.202178 } 42 -21.4354801 } 49 -25.9619293 } { 2 0 20 -7.3349781 } 69 -33.2969017 } { 2 0 7 -4.4886446 } 76 -37.7855492 } { 2 0 7 -6.21349764 } 83 -43.9990501 } 97 -54.502327 } { 2 0 5 -1.01358223 } 102 -55.5159149 } 200 -92.0954742 } { 2 0 5 -4.07629108 } 205 -96.1717911 } '
p330
tp331
Rp332
(dp333
g7
g26
sg29
I1
sbag2
(S'1 -1 { 1 2 2 7.1732626 { 1 2 1 1.42628646 { 1 2 0 3.5 { 2 0 7 -2.95823407 } { 2 0 7 -6.10506964 } 14 -9.0633049 } { 1 2 0 7.5 { 1 2 0 6.5 { 1 2 2 4.42133808 { 1 2 2 3.23955297 { 1 2 1 2.18516588 { 2 0 6 -2.41710711 } { 1 2 2 3.20875049 { 2 0 5 -0.557324052 } { 2 0 5 -0.483549118 } 10 -1.04087317 } 16 -3.45798016 } { 1 2 0 4.5 { 2 0 6 -2.52045608 } { 2 0 6 -0.992234051 } 12 -3.51269054 } 28 -6.97067022 } { 1 2 2 5.56512737 { 1 2 2 4.4471283 { 2 0 5 -2.0298562 } { 1 2 2 5.50184298 { 2 0 5 -3.06472301 } { 2 0 5 -2.35363197 } 10 -5.41835451 } 15 -7.44821024 } { 1 2 2 5.69891548 { 1 2 1 2.61668396 { 2 0 6 -2.62189794 } { 1 2 2 5.64705086 { 1 2 0 5.5 { 2 0 5 -0.632862985 } { 2 0 5 -1.36467898 } 10 -1.9975419 } { 2 0 5 -2.71732187 } 15 -4.71486425 } 21 -7.33676243 } { 2 0 6 -1.00180566 } 27 -8.33856773 } 42 -15.7867775 } 70 -22.7574387 } { 2 0 5 -0.501839221 } 75 -23.2592831 } { 1 2 1 3.99977016 { 2 0 10 -5.3781352 } { 2 0 6 -2.40795732 } 16 -7.78609324 } 91 -31.0453663 } 105 -40.1086807 } { 1 2 2 7.79086685 { 1 2 2 7.70400429 { 2 0 6 -5.09141827 } { 2 0 5 -5.0158 } 11 -10.1072197 } { 1 2 1 5.86809349 { 1 2 2 11.5169678 { 1 2 1 4.19481087 { 1 2 2 10.9600782 { 1 2 0 7.5 { 2 0 7 -4.19648218 } { 1 2 1 3.37148237 { 2 0 6 -3.24540806 } { 2 0 5 -2.30249619 } 11 -5.54790401 } 18 -9.74438572 } { 2 0 6 -4.07795 } 24 -13.8223372 } { 2 0 8 -6.0620141 } 32 -19.8843517 } { 1 2 1 3.58527446 { 1 2 2 11.7237301 { 2 0 9 -3.54623294 } { 1 2 1 3.20863008 { 1 2 1 2.65076089 { 2 0 9 -5.92825222 } { 2 0 5 -2.66366792 } 14 -8.5919199 } { 2 0 5 -4.15081072 } 19 -12.7427301 } 28 -16.2889633 } { 1 2 0 8.5 { 2 0 6 -1.56326199 } { 1 2 2 14.862114 { 2 0 6 -1.92974806 } { 2 0 6 -3.32434225 } 12 -5.25409031 } 18 -6.81735229 } 46 -23.1063213 } 78 -42.9906769 } { 1 2 2 15.038167 { 2 0 6 -2.5801878 } { 2 0 5 -0.557248652 } 11 -3.13743663 } 89 -46.1280975 } 100 -56.235321 } 205 -96.3439713 } '
p334
tp335
Rp336
(dp337
g7
g26
sg29
I1
sbag2
(S'1 -1 { 1 2 2 7.1732626 { 1 2 2 5.50996017 { 1 2 1 2.19265151 { 1 2 2 3.20421696 { 2 0 8 -3.70223379 } { 1 2 1 1.60523343 { 2 0 11 -6.36415482 } { 2 0 7 -4.85768366 } 18 -11.221839 } 26 -14.9240751 } { 1 2 1 3.47794294 { 1 2 2 4.41199446 { 1 2 0 4.5 { 2 0 8 -1.49098372 } { 2 0 8 -1.61062396 } 16 -3.1016078 } { 2 0 7 -3.16056275 } 23 -6.26217127 } { 2 0 6 -3.73774195 } 29 -9.99991226 } 55 -24.9239807 } { 1 2 2 5.64900589 { 2 0 17 -3.19347954 } { 1 2 2 5.65039253 { 2 0 8 -5.27439928 } { 1 2 2 5.72715378 { 2 0 7 -2.90107632 } { 1 2 0 7.5 { 2 0 10 -1.65796387 } { 2 0 5 -1.62792134 } 15 -3.28588533 } 22 -6.18696213 } 30 -11.4613619 } 47 -14.6548395 } 102 -39.5788231 } { 1 2 1 5.6253643 { 1 2 2 7.73213196 { 2 0 6 -5.29421902 } { 1 2 1 3.58527446 { 1 2 1 3.45094967 { 1 2 2 11.5169678 { 1 2 2 8.99888039 { 2 0 11 -5.97744751 } { 1 2 0 7 { 2 0 7 -5.39258671 } { 2 0 5 -2.77864599 } 12 -8.17123222 } 23 -14.1486807 } { 1 2 2 11.7237301 { 2 0 8 -2.95274687 } { 1 2 2 12.7570438 { 2 0 9 -5.35705519 } { 2 0 7 -4.48310471 } 16 -9.84016037 } 24 -12.7929068 } 47 -26.9415836 } { 2 0 7 -5.49906731 } 54 -32.4406548 } { 1 2 0 7.5 { 2 0 9 -1.96629715 } { 1 2 1 4.37284899 { 2 0 8 -3.50028229 } { 1 2 1 5.09754372 { 2 0 8 -5.89985609 } { 2 0 5 -2.95061207 } 13 -8.85046768 } 21 -12.35075 } 30 -14.3170452 } 84 -46.7577057 } 90 -52.0519371 } { 1 2 2 12.5885401 { 2 0 7 -2.11501765 } { 2 0 6 -1.40526819 } 13 -3.52028561 } 103 -55.5722313 } 205 -95.1510544 } '
p338
tp339
Rp340
(dp341
g7
g26
sg29
I1
sbag2
(S'1 -1 { 1 2 1 5.86809349 { 1 2 2 7.1732626 { 1 2 1 1.84251201 { 1 2 0 3.5 { 1 2 2 5.34826469 { 2 0 5 -2.92616296 } { 2 0 5 -3.84104681 } 10 -6.76721001 } { 1 2 1 1.45596409 { 2 0 5 -3.54659033 } { 2 0 6 -2.17820358 } 11 -5.72479343 } 21 -12.4920025 } { 1 2 2 6.92338276 { 1 2 1 2.19265151 { 2 0 20 -10.2385635 } { 1 2 0 5.5 { 1 2 2 3.81310558 { 2 0 9 -1.42341077 } { 1 2 2 5.59055519 { 2 0 7 -3.23265719 } { 1 2 2 5.64900589 { 2 0 5 -0.66503191 } { 2 0 8 -2.8291049 } 13 -3.49413705 } 20 -6.72679377 } 29 -8.1502037 } { 1 2 1 2.67763495 { 2 0 7 -4.51570225 } { 1 2 0 6.5 { 1 2 2 5.63954163 { 2 0 5 -1.33700395 } { 2 0 5 -2.047472 } 10 -3.38447618 } { 2 0 16 -7.11211109 } 26 -10.4965868 } 33 -15.0122871 } 62 -23.1624928 } 82 -33.4010506 } { 2 0 5 -1.05002999 } 87 -34.4510803 } 108 -46.9430733 } { 1 2 0 4.5 { 1 2 1 2.07765245 { 1 2 1 1.82347798 { 2 0 5 -3.42105103 } { 2 0 7 -5.8611536 } 12 -9.28220558 } { 2 0 6 -3.76923418 } 18 -13.0514374 } { 1 2 2 20.4186649 { 1 2 1 4.72312546 { 1 2 2 11.5165653 { 1 2 2 8.4084692 { 2 0 5 -4.10299778 } { 1 2 1 3.07296658 { 2 0 5 -2.76973104 } { 2 0 5 -3.33338976 } 10 -6.1031208 } 15 -10.2061186 } { 1 2 2 11.7237301 { 2 0 10 -3.85595775 } { 1 2 1 3.91322041 { 1 2 1 3.13930249 { 1 2 2 12.6659622 { 2 0 8 -4.52117538 } { 2 0 5 -1.55639398 } 13 -6.07756853 } { 2 0 9 -5.65668964 } 22 -11.7342587 } { 2 0 6 -1.62184191 } 28 -13.3561001 } 38 -17.212059 } 53 -27.4181786 } { 2 0 6 -4.42624617 } 59 -31.8444176 } { 2 0 7 -5.72801065 } 66 -37.5724335 } 84 -50.6238861 } 192 -97.5669098 } { 1 2 2 15.038167 { 2 0 7 -2.23636889 } { 2 0 6 -0.892584443 } 13 -3.12895274 } 205 -100.695908 } '
p342
tp343
Rp344
(dp345
g7
g26
sg29
I1
sbag2
(S'1 -1 { 1 2 0 7.5 { 1 2 0 6.5 { 1 2 2 11.8388386 { 1 2 2 3.22253513 { 1 2 2 1.00836992 { 2 0 5 -3.12500381 } { 2 0 19 -3.17204118 } 24 -6.29704285 } { 1 2 1 3.17070341 { 1 2 0 5.5 { 1 2 2 5.56512737 { 1 2 1 1.81835151 { 2 0 11 -7.16359663 } { 1 2 2 4.42513371 { 1 2 2 3.88096595 { 2 0 6 -3.11788011 } { 2 0 6 -0.992828012 } 12 -4.11070824 } { 2 0 6 -4.02121019 } 18 -8.13191795 } 29 -15.295516 } { 2 0 21 -6.55010939 } 50 -21.8456287 } { 2 0 26 -14.6201191 } 76 -36.4657478 } { 2 0 8 -1.74264586 } 84 -38.2083969 } 108 -44.5054436 } { 1 2 2 16.7725487 { 2 0 5 -3.64452386 } { 2 0 5 -4.15052986 } 10 -7.79505348 } 118 -52.3005066 } { 1 2 1 3.16779709 { 2 0 9 -3.58146191 } { 2 0 9 -2.1498332 } 18 -5.73129511 } 136 -58.0318031 } { 1 2 2 3.42903256 { 2 0 5 -4.48945141 } { 1 2 2 7.15995646 { 1 2 0 10.5 { 1 2 2 6.82077789 { 2 0 6 -2.96018791 } { 2 0 5 -2.00594187 } 11 -4.96613026 } { 2 0 5 -1.10019779 } 16 -6.06632805 } { 1 2 1 5.86809349 { 1 2 2 12.1958303 { 2 0 25 -16.8300724 } { 1 2 1 3.91322041 { 2 0 8 -4.71671343 } { 2 0 7 -3.07892799 } 15 -7.79564142 } 40 -24.6257172 } { 2 0 8 -2.79332709 } 48 -27.4190369 } 64 -33.4853668 } 69 -37.9748116 } 205 -96.0065765 } '
p346
tp347
Rp348
(dp349
g7
g26
sg29
I1
sbag2
(S'1 -1 { 1 2 0 321.5 { 1 2 0 3.5 { 1 2 1 1.68407941 { 1 2 2 5.39705849 { 2 0 5 -2.57118297 } { 2 0 7 -4.91526842 } 12 -7.48645163 } { 1 2 2 4.30200386 { 2 0 6 -2.10102606 } { 2 0 5 -2.8937192 } 11 -4.9947443 } 23 -12.4811993 } { 2 0 176 -76.9305344 } 199 -89.4117279 } { 2 0 6 -6.43416023 } 205 -95.8459015 } '
p350
tp351
Rp352
(dp353
g7
g26
sg29
I1
sbag2
(S'1 -1 { 2 0 205 -100.923531 } '
p354
tp355
Rp356
(dp357
g7
g26
sg29
I1
sbag2
(S'1 -1 { 1 2 1 2.18416357 { 1 2 2 7.6744771 { 1 2 2 5.6041255 { 1 2 2 4.43451643 { 1 2 0 4.5 { 1 2 1 1.77302849 { 1 2 1 1.52905905 { 2 0 8 -3.95097923 } { 2 0 7 -3.78835607 } 15 -7.73933601 } { 2 0 8 -2.17396903 } 23 -9.91330624 } { 2 0 5 -4.27270985 } 28 -14.1860151 } { 1 2 0 3.5 { 2 0 7 -5.39894438 } { 2 0 7 -4.9581418 } 14 -10.3570862 } 42 -24.5431061 } { 2 0 7 -1.26234245 } 49 -25.8054485 } { 1 2 0 4.5 { 2 0 8 -6.62490702 } { 2 0 10 -6.83729267 } 18 -13.4621983 } 67 -39.2676544 } { 1 2 2 6.89626026 { 1 2 1 3.20061493 { 1 2 2 4.40842438 { 2 0 9 -2.24765086 } { 1 2 0 5.5 { 1 2 1 2.61668396 { 2 0 8 -4.94869614 } { 2 0 7 -3.19935083 } 15 -8.14804649 } { 1 2 2 5.64705086 { 2 0 10 -2.67942095 } { 1 2 2 5.6979847 { 2 0 5 -3.48462892 } { 2 0 5 -1.67108798 } 10 -5.1557169 } 20 -7.8351388 } 35 -15.983181 } 44 -18.230835 } { 1 2 0 8.5 { 2 0 9 -1.48490524 } { 2 0 10 -4.16654682 } 19 -5.65145111 } 63 -23.8822861 } { 1 2 1 5.86809349 { 1 2 0 5.5 { 2 0 9 -3.73570943 } { 1 2 1 4.44698334 { 1 2 1 3.83987284 { 1 2 0 6.5 { 1 2 2 11.7237301 { 2 0 6 -3.66360807 } { 2 0 8 -5.22567272 } 14 -8.88928032 } { 1 2 1 3.55805302 { 1 2 1 3.39504719 { 1 2 2 10.3692207 { 2 0 7 -3.88267899 } { 2 0 8 -3.41462803 } 15 -7.29730797 } { 2 0 6 -4.07754326 } 21 -11.3748522 } { 2 0 5 -1.51399994 } 26 -12.8888493 } 40 -21.7781296 } { 2 0 9 -6.45266056 } 49 -28.2307892 } { 2 0 9 -4.1077652 } 58 -32.3385544 } 67 -36.0742645 } { 2 0 8 -2.18593836 } 75 -38.2602005 } 138 -62.1424828 } 205 -101.410149 } '
p358
tp359
Rp360
(dp361
g7
g26
sg29
I1
sbag2
(S'1 -1 { 1 2 1 2.02873445 { 1 2 2 7.6744771 { 1 2 0 3.5 { 1 2 0 2.5 { 2 0 5 -2.77742004 } { 2 0 15 -7.16479063 } 20 -9.94221115 } { 1 2 1 1.6268785 { 2 0 5 -3.12160921 } { 2 0 7 -1.56233132 } 12 -4.68394089 } 32 -14.626152 } { 1 2 2 12.1666698 { 2 0 10 -8.932477 } { 2 0 5 -3.00696588 } 15 -11.9394436 } 47 -26.5655918 } { 1 2 1 2.04662347 { 2 0 5 -0.934610009 } { 1 2 0 7.5 { 1 2 2 4.41199446 { 1 2 1 2.1910634 { 2 0 6 -3.1807189 } { 2 0 9 -1.62424302 } 15 -4.80496168 } { 1 2 1 3.21773696 { 1 2 0 6.5 { 1 2 1 2.1641326 { 2 0 8 -4.86466694 } { 1 2 1 2.82156801 { 2 0 31 -14.8335838 } { 1 2 1 3.00041342 { 2 0 5 -3.49749875 } { 2 0 9 -4.45123386 } 14 -7.94873381 } 45 -22.7823124 } 53 -27.6469822 } { 2 0 7 -2.26108789 } 60 -29.9080677 } { 1 2 1 3.60024261 { 2 0 7 -1.15529943 } { 2 0 9 -1.872455 } 16 -3.02775407 } 76 -32.9358253 } 91 -37.7407875 } { 2 0 62 -30.190733 } 153 -67.9315414 } 158 -68.8661499 } 205 -95.431694 } '
p362
tp363
Rp364
(dp365
g7
g26
sg29
I1
sbag2
(S'1 -1 { 1 2 1 1.26916301 { 2 0 9 -6.91481256 } { 1 2 1 3.75036097 { 1 2 2 7.25642729 { 1 2 1 1.66667891 { 1 2 1 1.52905905 { 2 0 5 -2.05054307 } { 2 0 6 -3.61444283 } 11 -5.66498566 } { 2 0 72 -26.7455788 } 83 -32.4105568 } { 1 2 0 4.5 { 1 2 1 1.91351843 { 1 2 2 16.2106323 { 2 0 5 -3.93090916 } { 2 0 5 -3.56175184 } 10 -7.492661 } { 2 0 7 -5.84111214 } 17 -13.3337727 } { 1 2 1 3.49586105 { 1 2 0 6.5 { 1 2 2 15.4939384 { 1 2 1 2.7363255 { 1 2 2 11.5549316 { 2 0 5 -2.64043808 } { 2 0 8 -4.78669643 } 13 -7.42713356 } { 2 0 7 -5.09846973 } 20 -12.5256052 } { 2 0 6 -3.17743111 } 26 -15.7030344 } { 1 2 0 7.5 { 2 0 6 -2.87136793 } { 2 0 13 -7.06244946 } 19 -9.93381691 } 45 -25.6368484 } { 2 0 8 -7.29696035 } 53 -32.9338112 } 70 -46.2675819 } 153 -78.6781387 } { 1 2 0 7.5 { 2 0 8 -1.4598242 } { 1 2 0 8.5 { 2 0 6 -3.50905561 } { 1 2 1 4.04738855 { 2 0 8 -2.72474885 } { 1 2 0 9.5 { 2 0 6 -1.97249579 } { 1 2 1 5.65424061 { 2 0 9 -6.05883932 } { 2 0 6 -2.82087517 } 15 -8.87971497 } 21 -10.8522091 } 29 -13.5769606 } 35 -17.08601 } 43 -18.5458336 } 196 -97.2240067 } 205 -104.138809 } '
p366
tp367
Rp368
(dp369
g7
g26
sg29
I1
sbag2
(S'1 -1 { 1 2 0 10.5 { 1 2 2 7.1732626 { 1 2 0 8.5 { 1 2 1 1.66667891 { 1 2 1 1.3340205 { 2 0 9 -3.60739756 } { 1 2 1 1.52905905 { 2 0 5 -2.77019024 } { 2 0 8 -4.67716885 } 13 -7.44735861 } 22 -11.0547562 } { 1 2 2 5.56512737 { 1 2 2 4.41199446 { 1 2 1 2.18516588 { 2 0 8 -3.88650107 } { 1 2 1 2.47812057 { 1 2 2 3.21997952 { 2 0 5 -0.847582698 } { 2 0 5 -2.09216714 } 10 -2.93974972 } { 2 0 6 -1.063748 } 16 -4.00349808 } 24 -7.88999891 } { 1 2 2 5.34036732 { 2 0 10 -4.86451101 } { 2 0 6 -3.83618307 } 16 -8.70069408 } 40 -16.5906925 } { 1 2 0 5.5 { 1 2 1 1.85400558 { 2 0 6 -0.385513484 } { 2 0 8 -2.31039619 } 14 -2.69590998 } { 1 2 2 6.86212254 { 1 2 0 6.5 { 2 0 8 -2.13783145 } { 2 0 6 -2.80270815 } 14 -4.94053888 } { 2 0 5 -0.912416995 } 19 -5.85295582 } 33 -8.54886532 } 73 -25.1395473 } 95 -36.194313 } { 1 2 1 4.3360796 { 2 0 9 -4.70876789 } { 2 0 5 -3.04198503 } 14 -7.7507534 } 109 -43.9450607 } { 1 2 1 3.91981936 { 2 0 63 -37.1729698 } { 1 2 1 5.44061756 { 2 0 17 -6.27442884 } { 2 0 6 -1.01643634 } 23 -7.29086542 } 86 -44.4638329 } 195 -88.4088974 } { 1 2 1 4.19714069 { 2 0 5 -4.39029789 } { 2 0 5 -2.08470511 } 10 -6.47500324 } 205 -94.8839035 } '
p370
tp371
Rp372
(dp373
g7
g26
sg29
I1
sbag2
(S'1 -1 { 1 2 1 3.6876893 { 1 2 1 1.02704895 { 2 0 8 -6.11612082 } { 1 2 2 7.1732626 { 1 2 0 3.5 { 1 2 1 1.59581757 { 2 0 5 -2.82170987 } { 2 0 6 -4.23926401 } 11 -7.06097412 } { 1 2 2 1.00909901 { 2 0 5 -3.15561223 } { 1 2 2 3.31170368 { 2 0 8 -1.37687087 } { 1 2 1 1.96020055 { 2 0 7 -1.30541861 } { 1 2 2 5.6371212 { 1 2 1 2.56926489 { 2 0 8 -4.99359894 } { 2 0 13 -5.16789389 } 21 -10.1614914 } { 1 2 1 2.86622763 { 1 2 0 5.5 { 2 0 10 -2.53443885 } { 2 0 9 -4.25268984 } 19 -6.78712845 } { 2 0 9 -2.14598823 } 28 -8.93311787 } 49 -19.0946045 } 56 -20.4000263 } 64 -21.7768955 } 69 -24.9325027 } 80 -31.993475 } { 1 2 0 5.5 { 1 2 2 11.7051239 { 1 2 2 11.5169678 { 2 0 6 -2.70178938 } { 2 0 6 -1.26975608 } 12 -3.9715457 } { 2 0 5 -3.607409 } 17 -7.5789547 } { 1 2 2 9.67498684 { 2 0 9 -6.39452696 } { 1 2 1 3.50015759 { 1 2 1 2.4764235 { 1 2 1 2.31638598 { 2 0 6 -3.964046 } { 2 0 6 -3.87924194 } 12 -7.84328842 } { 1 2 2 12.7570438 { 2 0 9 -3.95876694 } { 1 2 1 3.09866714 { 2 0 5 -1.95948899 } { 2 0 5 -3.9511261 } 10 -5.91061497 } 19 -9.86938095 } 31 -17.7126713 } { 2 0 5 -3.72831011 } 36 -21.4409809 } 45 -27.8355064 } 62 -35.414463 } 142 -67.4079361 } 150 -73.5240402 } { 1 2 2 14.9724798 { 1 2 0 8.5 { 1 2 0 7.5 { 2 0 8 -1.75629008 } { 2 0 5 -1.43887401 } 13 -3.19516373 } { 1 2 2 6.89626026 { 2 0 10 -3.34120417 } { 1 2 1 4.29885769 { 2 0 5 -3.05200911 } { 1 2 0 10.5 { 2 0 9 -3.08884168 } { 2 0 7 -4.26188612 } 16 -7.35072803 } 21 -10.4027367 } 31 -13.7439423 } 44 -16.9391041 } { 1 2 1 4.67182827 { 2 0 6 -1.34008896 } { 2 0 5 -0.661132634 } 11 -2.00122166 } 55 -18.9403324 } 205 -92.4643478 } '
p374
tp375
Rp376
(dp377
g7
g26
sg29
I1
sbag2
(S'1 -1 { 1 2 2 7.1732626 { 1 2 2 1.00836992 { 2 0 6 -4.66451406 } { 1 2 2 6.86212254 { 1 2 2 3.32383609 { 1 2 1 2.18516588 { 1 2 1 1.97488248 { 2 0 7 -2.58296895 } { 2 0 6 -3.30268192 } 13 -5.88565111 } { 1 2 1 2.4726615 { 2 0 5 -0.544556499 } { 2 0 5 -1.00940406 } 10 -1.55396056 } 23 -7.43961191 } { 1 2 1 2.86622763 { 1 2 2 4.4471283 { 1 2 0 4 { 2 0 5 -2.59365201 } { 2 0 10 -3.45929599 } 15 -6.05294847 } { 2 0 30 -16.131134 } 45 -22.1840858 } { 1 2 2 5.61628532 { 2 0 8 -4.09677887 } { 1 2 2 5.65720558 { 2 0 11 -3.36306286 } { 2 0 5 -2.24084115 } 16 -5.60390425 } 24 -9.70068359 } 69 -31.8847637 } 92 -39.3243752 } { 2 0 9 -1.75792086 } 101 -41.0822983 } 107 -45.7468185 } { 1 2 1 5.6253643 { 2 0 90 -54.5406532 } { 2 0 8 -1.96880639 } 98 -56.5094643 } 205 -102.256271 } '
p378
tp379
Rp380
(dp381
g7
g26
sg29
I1
sbag2
(S'1 -1 { 1 2 0 10.5 { 1 2 0 5.5 { 1 2 0 3.5 { 2 0 20 -11.15166 } { 1 2 2 9.84834099 { 1 2 2 5.61679363 { 1 2 1 2.53446913 { 1 2 2 4.4471283 { 1 2 1 1.53847504 { 2 0 5 -1.25251853 } { 1 2 1 2.1554215 { 2 0 9 -4.29177141 } { 2 0 8 -2.84464002 } 17 -7.13641119 } 22 -8.38893032 } { 2 0 5 -3.37495303 } 27 -11.7638826 } { 2 0 7 -1.13869798 } 34 -12.9025803 } { 1 2 2 5.64900589 { 2 0 5 -0.629280508 } { 1 2 1 2.13720369 { 2 0 8 -0.900972188 } { 2 0 6 -2.22411489 } 14 -3.12508726 } 19 -3.75436831 } 53 -16.65695 } { 2 0 11 -7.72117519 } 64 -24.3781147 } 84 -35.529789 } { 1 2 1 3.75036097 { 1 2 2 7.13283396 { 2 0 29 -12.1227112 } { 1 2 2 13.8124399 { 1 2 0 6.5 { 1 2 2 9.71291351 { 2 0 5 -3.74972486 } { 2 0 5 -3.01651502 } 10 -6.76624012 } { 1 2 0 7.5 { 2 0 8 -3.86713386 } { 2 0 10 -5.70078945 } 18 -9.56792259 } 28 -16.3341637 } { 2 0 15 -10.1642942 } 43 -26.4984608 } 72 -38.6211624 } { 1 2 1 4.37306023 { 1 2 0 7.5 { 2 0 7 -1.54616308 } { 1 2 2 12.0783844 { 2 0 8 -4.02797985 } { 2 0 6 -1.94775605 } 14 -5.97573662 } 21 -7.52189922 } { 1 2 0 9.5 { 1 2 1 5.13355064 { 2 0 5 -1.68825996 } { 2 0 5 -2.74944305 } 10 -4.43770313 } { 2 0 6 -3.07109284 } 16 -7.50879622 } 37 -15.0306931 } 109 -53.6518784 } 193 -89.1816711 } { 1 2 1 4.19714069 { 2 0 6 -4.72154522 } { 2 0 6 -3.50399899 } 12 -8.22554493 } 205 -97.4072037 } '
p382
tp383
Rp384
(dp385
g7
g26
sg29
I1
sbag2
(S'1 -1 { 2 0 205 -97.3216934 } '
p386
tp387
Rp388
(dp389
g7
g26
sg29
I1
sbag2
(S'1 -1 { 1 2 2 7.1732626 { 1 2 2 5.72715378 { 1 2 2 5.64900589 { 1 2 2 5.63767338 { 1 2 0 8.5 { 1 2 1 2.19854903 { 1 2 1 1.97903395 { 1 2 1 1.67749858 { 2 0 12 -5.56281328 } { 2 0 7 -1.96205294 } 19 -7.52486706 } { 2 0 8 -4.85831833 } 27 -12.3831854 } { 1 2 2 4.41199446 { 1 2 2 3.21997952 { 2 0 6 -0.592987895 } { 2 0 5 -0.921111047 } 11 -1.51409876 } { 2 0 17 -6.51164913 } 28 -8.0257473 } 55 -20.4089355 } { 2 0 8 -4.77914858 } 63 -25.1880798 } { 2 0 8 -0.710832 } 71 -25.8989086 } { 2 0 7 -4.24302912 } 78 -30.1419353 } { 1 2 1 3.28240442 { 1 2 2 6.93341064 { 2 0 6 -0.907769918 } { 2 0 6 -1.12153196 } 12 -2.02930188 } { 2 0 9 -2.46070957 } 21 -4.49001169 } 99 -34.6319351 } { 1 2 1 2.19011354 { 1 2 0 4.5 { 2 0 9 -7.70801115 } { 2 0 10 -7.06374264 } 19 -14.7717562 } { 1 2 1 5.86809349 { 1 2 1 4.97040701 { 1 2 1 4.44698334 { 1 2 1 4.33583832 { 1 2 1 3.91981936 { 1 2 1 3.1243434 { 1 2 2 10.9295835 { 1 2 1 2.44831753 { 2 0 6 -3.80566788 } { 2 0 5 -2.84706497 } 11 -6.6527338 } { 1 2 2 11.7237301 { 2 0 5 -1.488855 } { 1 2 2 12.6659622 { 2 0 7 -3.9060781 } { 2 0 8 -3.63459587 } 15 -7.54067421 } 20 -9.02952957 } 31 -15.6822624 } { 1 2 1 3.33912039 { 2 0 6 -5.33542585 } { 1 2 2 11.5432072 { 2 0 5 -2.62349582 } { 2 0 6 -3.56424212 } 11 -6.18773746 } 17 -11.5231647 } 48 -27.2054234 } { 2 0 10 -3.70737028 } 58 -30.9127941 } { 2 0 5 -3.7972827 } 63 -34.7100792 } { 2 0 5 -1.02692103 } 68 -35.7369995 } { 1 2 2 14.9360085 { 2 0 6 -4.10075188 } { 2 0 6 -3.43791008 } 12 -7.53866243 } 80 -43.2756691 } { 2 0 7 -2.231879 } 87 -45.5075531 } 106 -60.2793236 } 205 -94.911232 } '
p390
tp391
Rp392
(dp393
g7
g26
sg29
I1
sbag2
(S'1 -1 { 2 0 205 -96.2769699 } '
p394
tp395
Rp396
(dp397
g7
g26
sg29
I1
sbag2
(S'1 -1 { 1 2 0 323.5 { 1 2 2 7.1732626 { 1 2 2 6.86212254 { 1 2 0 7.5 { 1 2 1 3.19594955 { 1 2 0 5.5 { 1 2 1 1.42628646 { 2 0 8 -4.20028973 } { 1 2 0 3.5 { 1 2 1 1.99528444 { 2 0 7 -4.04465008 } { 2 0 5 -1.09850371 } 12 -5.14315271 } { 1 2 1 2.34571981 { 1 2 2 3.32792902 { 1 2 1 1.85157704 { 2 0 5 -1.58817482 } { 2 0 6 -1.1134367 } 11 -2.70161176 } { 2 0 9 -3.49832749 } 20 -6.19993782 } { 1 2 2 4.8886652 { 2 0 8 -4.74003744 } { 1 2 2 5.65607786 { 2 0 8 -3.273736 } { 2 0 6 -1.58149695 } 14 -4.85523272 } 22 -9.59527016 } 42 -15.7952108 } 54 -20.9383678 } 62 -25.1386566 } { 1 2 1 2.57845211 { 2 0 5 -3.42597675 } { 2 0 10 -4.53207684 } 15 -7.95805407 } 77 -33.0967064 } { 1 2 2 5.01209068 { 2 0 6 -1.49624193 } { 2 0 5 -0.842509151 } 11 -2.33875108 } 88 -35.4354591 } { 1 2 0 9.5 { 2 0 7 -3.8990283 } { 2 0 7 -4.02965117 } 14 -7.92867899 } 102 -43.3641319 } { 2 0 10 -1.99676871 } 112 -45.3608971 } { 1 2 1 3.66154385 { 1 2 0 4.5 { 1 2 1 1.6507355 { 2 0 6 -4.30184412 } { 2 0 6 -4.02871895 } 12 -8.33056259 } { 1 2 1 3.20863008 { 1 2 1 2.94499636 { 1 2 0 5.5 { 2 0 8 -4.26538754 } { 1 2 1 2.4764235 { 2 0 11 -7.16983223 } { 2 0 7 -3.93782592 } 18 -11.1076584 } 26 -15.373045 } { 2 0 7 -2.96698809 } 33 -18.3400307 } { 1 2 1 3.45071745 { 2 0 7 -5.1830368 } { 2 0 5 -4.10270786 } 12 -9.28574467 } 45 -27.6257763 } 57 -35.9563408 } { 1 2 1 3.88340592 { 2 0 6 -2.02480006 } { 1 2 2 11.6083374 { 2 0 10 -6.4262929 } { 1 2 2 14.8722649 { 2 0 6 -1.35987198 } { 2 0 8 -4.98565006 } 14 -6.34552193 } 24 -12.7718163 } 30 -14.7966146 } 87 -50.7529564 } 199 -96.1138306 } { 2 0 6 -6.43416023 } 205 -102.547989 } '
p398
tp399
Rp400
(dp401
g7
g26
sg29
I1
sbag2
(S'1 -1 { 1 2 2 1.00731707 { 2 0 6 -5.08218718 } { 1 2 2 7.1732626 { 1 2 2 5.56512737 { 1 2 1 2.19265151 { 1 2 1 1.95744097 { 1 2 0 3.5 { 2 0 7 -4.61068058 } { 1 2 1 1.7165035 { 2 0 7 -2.84806395 } { 2 0 5 -1.13400686 } 12 -3.98207116 } 19 -8.59275246 } { 2 0 9 -5.30248117 } 28 -13.895236 } { 1 2 2 3.32383609 { 2 0 9 -1.26965284 } { 1 2 2 3.88096595 { 2 0 6 -3.65121412 } { 1 2 0 5.5 { 2 0 9 -4.09431124 } { 2 0 5 -1.22463405 } 14 -5.31894493 } 20 -8.97015858 } 29 -10.2398109 } 57 -24.1350403 } { 1 2 2 5.64943123 { 1 2 0 5.5 { 2 0 6 -0.554364026 } { 2 0 8 -2.62436533 } 14 -3.17872882 } { 2 0 25 -8.86046791 } 39 -12.0391979 } 96 -36.1742287 } { 1 2 1 4.19907045 { 1 2 2 7.59515476 { 2 0 9 -7.65183544 } { 1 2 1 2.02917004 { 1 2 1 1.82538295 { 2 0 6 -3.31440401 } { 2 0 5 -4.33955765 } 11 -7.65396214 } { 1 2 2 11.7237301 { 1 2 1 2.22467136 { 2 0 7 -2.23625493 } { 1 2 1 2.44791007 { 2 0 5 -3.12370205 } { 1 2 0 7.5 { 1 2 1 2.97313809 { 2 0 5 -1.77600503 } { 2 0 5 -1.71919096 } 10 -3.49519587 } { 2 0 10 -4.44502115 } 20 -7.94021797 } 25 -11.0639181 } 32 -13.3001728 } { 1 2 0 8.5 { 1 2 2 15.7176628 { 1 2 2 11.7695332 { 2 0 5 -3.27623487 } { 2 0 6 -4.54454708 } 11 -7.82078123 } { 2 0 6 -2.125916 } 17 -9.94669724 } { 2 0 8 -3.47197723 } 25 -13.4186745 } 57 -26.7188454 } 68 -34.3728065 } 77 -42.0246582 } { 1 2 0 10.5 { 1 2 2 11.7427378 { 2 0 6 -1.8592279 } { 1 2 0 9.5 { 2 0 7 -2.28206992 } { 2 0 6 -1.209252 } 13 -3.49132204 } 19 -5.3505497 } { 2 0 7 -3.51011896 } 26 -8.86067009 } 103 -50.885334 } 199 -87.0595245 } 205 -92.1417084 } '
p402
tp403
Rp404
(dp405
g7
g26
sg29
I1
sbag2
(S'1 -1 { 1 2 0 323 { 1 2 2 7.1732626 { 1 2 0 2.5 { 2 0 6 -3.80694509 } { 1 2 2 5.6041255 { 1 2 2 5.38916111 { 2 0 51 -21.7564774 } { 2 0 7 -4.8499527 } 58 -26.606432 } { 1 2 2 5.64900589 { 1 2 1 2.27888107 { 2 0 6 -0.583000541 } { 2 0 8 -2.49475479 } 14 -3.07775545 } { 1 2 1 2.52708435 { 2 0 7 -1.68062091 } { 1 2 2 5.69891548 { 2 0 7 -3.40873694 } { 2 0 6 -2.0040369 } 13 -5.41277409 } 20 -7.09339523 } 34 -10.1711493 } 92 -36.7775879 } 98 -40.5845375 } { 1 2 2 15.2220821 { 1 2 1 5.09351397 { 1 2 1 2.18020511 { 1 2 0 4.5 { 2 0 6 -4.42110682 } { 2 0 5 -3.53187084 } 11 -7.95297813 } { 1 2 2 11.5165653 { 1 2 1 3.57158756 { 1 2 1 3.21551657 { 1 2 1 2.82156801 { 1 2 1 2.30193996 { 2 0 5 -3.03405905 } { 2 0 6 -3.43353176 } 11 -6.46759081 } { 2 0 6 -4.88538408 } 17 -11.3529739 } { 2 0 8 -3.96160698 } 25 -15.3145828 } { 2 0 5 -3.68142509 } 30 -18.9960079 } { 1 2 2 11.7237301 { 2 0 11 -3.67732501 } { 1 2 2 12.1958303 { 2 0 9 -5.58364487 } { 1 2 0 8 { 2 0 5 -3.42492318 } { 2 0 9 -3.90619612 } 14 -7.33111906 } 23 -12.9147644 } 34 -16.5920868 } 64 -35.5880966 } 75 -43.5410919 } { 1 2 2 10.8527584 { 2 0 6 -1.85583472 } { 2 0 5 -1.41521704 } 11 -3.27105141 } 86 -46.8121529 } { 1 2 1 3.40958905 { 2 0 5 -2.59386897 } { 1 2 2 20.1310616 { 2 0 5 -4.32619715 } { 2 0 6 -4.70866823 } 11 -9.03486538 } 16 -11.6287336 } 102 -58.4408875 } 200 -99.0253754 } { 2 0 5 -5.36180019 } 205 -104.387154 } '
p406
tp407
Rp408
(dp409
g7
g26
sg29
I1
sbag2
(S'1 -1 { 1 2 2 0.501815975 { 2 0 5 -5.36180019 } { 2 0 200 -94.0976486 } 205 -99.4594574 } '
p410
tp411
Rp412
(dp413
g7
g26
sg29
I1
sbag2
(S'1 -1 { 1 2 1 2.63619614 { 1 2 2 4.4471283 { 1 2 0 5.5 { 1 2 2 3.91707993 { 1 2 2 1.01172495 { 2 0 6 -2.11657953 } { 1 2 1 1.9225775 { 2 0 8 -3.46138191 } { 2 0 8 -4.36237049 } 16 -7.82375288 } 22 -9.94033146 } { 2 0 5 -0.805663288 } 27 -10.7459965 } { 2 0 5 -4.15141773 } 32 -14.8974142 } { 1 2 0 4.5 { 1 2 1 1.36912346 { 2 0 6 -3.05010366 } { 2 0 20 -14.1927128 } 26 -17.2428169 } { 1 2 2 9.2312851 { 2 0 13 -5.44343662 } { 1 2 1 2.44791007 { 1 2 2 11.5169678 { 1 2 0 5.5 { 2 0 5 -3.5708549 } { 2 0 10 -6.31258488 } 15 -9.88344097 } { 2 0 9 -5.12827682 } 24 -15.0117178 } { 2 0 6 -2.55963016 } 30 -17.5713482 } 43 -23.0147858 } 69 -40.2576065 } 101 -55.1550179 } { 1 2 2 5.64705086 { 1 2 0 8.5 { 2 0 19 -4.33863688 } { 2 0 8 -4.19436216 } 27 -8.53299904 } { 1 2 2 8.51969337 { 1 2 2 7.15995646 { 1 2 2 5.72715378 { 2 0 6 -3.72320104 } { 2 0 8 -2.56100631 } 14 -6.28420687 } { 2 0 9 -5.88053513 } 23 -12.1647425 } { 1 2 1 5.6253643 { 1 2 2 18.7214012 { 1 2 1 3.91981936 { 1 2 2 10.9600782 { 2 0 5 -1.84951818 } { 1 2 2 13.6986198 { 1 2 2 12.5198002 { 2 0 6 -3.1607821 } { 2 0 5 -2.65764618 } 11 -5.81842804 } { 2 0 5 -2.34482384 } 16 -8.16325188 } 21 -10.0127697 } { 1 2 1 4.39660645 { 2 0 6 -1.574471 } { 2 0 9 -3.75099373 } 15 -5.32546473 } 36 -15.3382359 } { 2 0 8 -4.55925512 } 44 -19.8974915 } { 1 2 1 6.24004316 { 2 0 5 -1.28848898 } { 2 0 5 -1.14978528 } 10 -2.43827415 } 54 -22.3357716 } 77 -34.5005074 } 104 -43.0335083 } 205 -98.1884918 } '
p414
tp415
Rp416
(dp417
g7
g26
sg29
I1
sbag2
(S'1 -1 { 1 2 0 8.5 { 1 2 2 7.25642729 { 1 2 2 5.6041255 { 1 2 2 5.34036732 { 2 0 59 -23.0504665 } { 2 0 11 -5.84406376 } 70 -28.8945332 } { 1 2 1 2.06640601 { 1 2 2 5.70989752 { 2 0 5 -0.418284595 } { 2 0 5 -0.672213614 } 10 -1.09049821 } { 1 2 1 2.65731192 { 1 2 2 5.75010777 { 2 0 7 -4.1493392 } { 2 0 6 -1.28728795 } 13 -5.43662643 } { 1 2 1 3.04051018 { 2 0 7 -1.29276752 } { 2 0 8 -3.13294101 } 15 -4.42570877 } 28 -9.86233711 } 38 -10.952836 } 108 -39.8473625 } { 1 2 1 3.63002586 { 1 2 0 4.5 { 1 2 1 1.91351843 { 2 0 7 -4.85974789 } { 2 0 5 -4.0663929 } 12 -8.92613983 } { 1 2 0 6.5 { 1 2 1 3.09173489 { 1 2 2 11.5169678 { 2 0 6 -4.02416611 } { 1 2 2 11.6467047 { 2 0 5 -2.50728893 } { 1 2 2 13.9211636 { 2 0 5 -2.076051 } { 2 0 5 -1.92255807 } 10 -3.99860907 } 15 -6.50589752 } 21 -10.5300627 } { 2 0 8 -6.9248476 } 29 -17.4549103 } { 1 2 1 3.39251089 { 2 0 8 -3.45037603 } { 2 0 5 -3.38925719 } 13 -6.83963203 } 42 -24.2945404 } 54 -33.2206802 } { 1 2 0 7.5 { 2 0 5 -1.24809492 } { 2 0 9 -4.06441879 } 14 -5.31251335 } 68 -38.5331955 } 176 -78.3805771 } { 1 2 1 3.75036097 { 2 0 5 -4.18117237 } { 1 2 1 4.18584728 { 1 2 0 9.5 { 2 0 5 -2.34672117 } { 2 0 5 -3.47900605 } 10 -5.82572699 } { 1 2 2 14.8722649 { 2 0 9 -4.26613522 } { 2 0 5 -3.36583614 } 14 -7.63197184 } 24 -13.4576988 } 29 -17.6388645 } 205 -96.0194016 } '
p418
tp419
Rp420
(dp421
g7
g26
sg29
I1
sbag2
(S'1 -1 { 1 2 2 7.1732626 { 1 2 0 8.5 { 1 2 1 3.22186995 { 1 2 0 3.5 { 1 2 1 1.3340205 { 2 0 6 -2.50535154 } { 1 2 2 4.26434565 { 2 0 7 -3.62310457 } { 2 0 5 -2.92063284 } 12 -6.54373741 } 18 -9.04908943 } { 1 2 1 2.08846235 { 1 2 1 1.6268785 { 2 0 7 -2.31041288 } { 2 0 7 -1.28367937 } 14 -3.59409237 } { 2 0 48 -19.8793201 } 62 -23.4734097 } 80 -32.5224991 } { 1 2 0 7.5 { 2 0 9 -1.65005827 } { 2 0 5 -1.220366 } 14 -2.87042379 } 94 -35.3929176 } { 1 2 2 4.53595734 { 2 0 6 -4.92466831 } { 2 0 9 -4.42274427 } 15 -9.34741211 } 109 -44.7403259 } { 1 2 2 7.73213196 { 2 0 9 -7.85263014 } { 1 2 1 3.55375648 { 1 2 2 9.042099 { 1 2 1 2.50527859 { 2 0 5 -2.48896146 } { 2 0 5 -2.69190693 } 10 -5.18086863 } { 1 2 2 11.5169678 { 1 2 1 2.44831753 { 2 0 7 -4.68642521 } { 2 0 6 -4.56093788 } 13 -9.24736309 } { 1 2 0 4.5 { 2 0 8 -5.82263184 } { 1 2 0 5.5 { 2 0 6 -2.99257612 } { 1 2 1 3.13127565 { 2 0 7 -3.48008418 } { 2 0 6 -3.733531 } 13 -7.21361542 } 19 -10.2061911 } 27 -16.0288219 } 40 -25.2761803 } 50 -30.4570503 } { 1 2 2 11.650279 { 1 2 1 4.78559875 { 2 0 6 -4.06241989 } { 2 0 7 -3.01926184 } 13 -7.08168173 } { 1 2 1 4.97040701 { 1 2 1 3.92754889 { 1 2 0 8.5 { 2 0 5 -1.91021502 } { 2 0 5 -1.98282599 } 10 -3.89304066 } { 2 0 7 -1.63709199 } 17 -5.53013325 } { 2 0 7 -3.19686103 } 24 -8.72699356 } 37 -15.8086739 } 87 -46.2657242 } 96 -54.1183701 } 205 -98.8587036 } '
p422
tp423
Rp424
(dp425
g7
g26
sg29
I1
sbaS'rf'
p426
cOrange.orange
__pickleLoaderDomain
p427
(cOrange.data
Domain
p428
cOrange.core
VarList
p429
(tRp430
g8
(g9
(dp431
g11
Nsg12
I1
sg13
I2
sg14
I0
sg15
Nsg16
I0
sg17
I0
sg18
F0.0
sg19
F-1.0
sg20
I0
sg21
F-1.0
sg22
I1
sS'name'
p432
S'Mouse Clicks'
p433
stp434
Rp435
(dp436
g28
Nsbag8
(g9
(dp437
g11
Nsg12
I1
sg13
I2
sg14
I0
sg15
Nsg16
I0
sg17
I6
sg18
F0.0
sg19
F-1.0
sg20
I0
sg21
F-1.0
sg22
I1
sS'name'
p438
S'Mouse Movements'
p439
stp440
Rp441
(dp442
g28
Nsbag8
(g9
(dp443
g11
Nsg12
I1
sg13
I2
sg14
I0
sg15
Nsg16
I0
sg17
I6
sg18
F0.0
sg19
F-1.0
sg20
I0
sg21
F-1.0
sg22
I1
sS'name'
p444
S'Ignorance Time'
p445
stp446
Rp447
(dp448
g28
Nsba(dp449
bg26
g429
(tRp450
(dp451
b(dp452
(dp453
tp454
Rp455
(dp456
bg26
g450
tp457
Rp458
(dp459
S'name'
p460
g426
sS'domain'
p461
g455
sS'single_class'
p462
I01
sS'classifiers'
p463
g1
sS'class_vars'
p464
g450
sb.