cOrange.ensemble.forest
RandomForestClassifier
p1
((lp2
cOrange.orange
__pickleLoaderSimpleTreeClassifier
p3
(S'1 -1 { 1 2 1 10.567009 { 2 0 109 -31.5152912 } { 2 0 311 -178.256836 } 420 -209.771912 } '
tRp4
(dp5
S'class_var'
p6
cOrange.orange
__pickleLoaderVariable
p7
(cOrange.feature
Continuous
p8
(dp9
S'source_variable'
p10
NsS'ordered'
p11
I1
sS'var_type'
p12
I2
sS'scientific_format'
p13
I0
sS'random_generator'
p14
NsS'distributed'
p15
I0
sS'number_of_decimals'
p16
I7
sS'end_value'
p17
F0
sS'step_value'
p18
F-1
sS'default_meta_id'
p19
I0
sS'start_value'
p20
F-1
sS'attributes'
p21
(dp22
sS'adjust_decimals'
p23
I1
sS'name'
p24
S'F_3'
p25
stRp26
(dp27
S'get_value_from'
p28
NsbsS'computes_probabilities'
p29
I1
sbag3
(S'1 -1 { 1 2 1 10.9300356 { 1 2 2 32.1696739 { 1 2 1 2.40527773 { 1 2 1 1.25027347 { 2 0 7 -0.646404088 } { 2 0 11 -3.13655353 } 18 -3.78295755 } { 1 2 0 5.5 { 2 0 7 -0.888408422 } { 2 0 5 -0.380528033 } 12 -1.2689364 } 30 -5.05189419 } { 1 2 2 144.270111 { 1 2 0 3.5 { 2 0 9 -5.81524658 } { 1 2 0 6.5 { 1 2 1 3.42957973 { 2 0 10 -4.56272459 } { 1 2 1 7.49641228 { 1 2 0 4.5 { 2 0 11 -3.42838883 } { 2 0 8 -2.11048102 } 19 -5.53886986 } { 1 2 1 8.843853 { 2 0 11 -3.79060602 } { 1 2 1 9.10606956 { 2 0 6 -2.38004398 } { 2 0 5 -1.8839941 } 11 -4.26403809 } 22 -8.05464554 } 41 -13.5935144 } 51 -18.1562424 } { 1 2 0 8.5 { 1 2 1 8.62664795 { 2 0 8 -1.84808016 } { 2 0 7 -1.30354071 } 15 -3.1516211 } { 2 0 7 -0.836583018 } 22 -3.98820376 } 73 -22.1444435 } 82 -27.959692 } { 2 0 6 -4.07217026 } 88 -32.0318642 } 118 -37.083744 } { 1 2 2 147.244263 { 2 0 116 -37.0154114 } { 1 2 2 243.012268 { 1 2 1 14.9107513 { 2 0 9 -6.99461794 } { 1 2 0 10.5 { 1 2 1 26.2631989 { 2 0 43 -24.6361141 } { 1 2 2 188.572754 { 1 2 2 156.816895 { 2 0 7 -3.4227891 } { 1 2 2 166.466339 { 2 0 6 -3.91914821 } { 2 0 5 -2.82757092 } 11 -6.74671888 } 18 -10.1695089 } { 1 2 1 65697.1719 { 1 2 1 49816.293 { 2 0 7 -5.09537029 } { 2 0 7 -5.83821392 } 14 -10.9335823 } { 2 0 10 -6.24343014 } 24 -17.1770115 } 42 -27.3465252 } 85 -51.9826469 } { 2 0 10 -5.03708363 } 95 -57.0197334 } 104 -64.0143356 } { 1 2 1 22570.0098 { 1 2 1 20.9579163 { 2 0 18 -15.7279329 } { 1 2 0 8 { 1 2 1 21.2893486 { 2 0 5 -3.67526507 } { 2 0 19 -15.4580584 } 24 -19.1333275 } { 2 0 5 -3.79204011 } 29 -22.9253674 } 47 -38.6532822 } { 1 2 2 297.855835 { 2 0 10 -7.61558056 } { 2 0 25 -22.7574482 } 35 -30.3730354 } 82 -69.0263367 } 186 -133.040649 } 302 -170.056061 } 420 -207.13974 } '
tRp30
(dp31
g6
g26
sg29
I1
sbag3
(S'1 -1 { 1 2 2 147.244263 { 1 2 0 8.5 { 1 2 2 113.017746 { 1 2 2 13.6662216 { 1 2 2 8.90587616 { 2 0 9 -0.502412379 } { 2 0 7 -0.971798956 } 16 -1.47421145 } { 2 0 119 -36.5299263 } 135 -38.0041389 } { 1 2 1 10.1354055 { 2 0 9 -3.25463605 } { 1 2 0 4.5 { 2 0 9 -5.15879965 } { 2 0 37 -17.354929 } 46 -22.5137177 } 55 -25.7683563 } 190 -63.7725105 } { 1 2 2 74.31427 { 1 2 0 11.5 { 2 0 8 -0.883995593 } { 2 0 6 -0.379494488 } 14 -1.2634902 } { 1 2 2 100.644302 { 2 0 6 -1.384606 } { 2 0 14 -4.18398523 } 20 -5.56859112 } 34 -6.83208179 } 224 -70.604599 } { 1 2 1 67462.9531 { 1 2 2 275.636536 { 1 2 2 231.531052 { 1 2 0 6.5 { 1 2 1 14.9107513 { 2 0 9 -7.24085236 } { 1 2 1 43449.3516 { 1 2 2 154.065552 { 2 0 6 -4.11870575 } { 1 2 1 18488.6914 { 2 0 10 -6.42189503 } { 2 0 6 -3.93801212 } 16 -10.3599081 } 22 -14.4786139 } { 2 0 6 -4.62391281 } 28 -19.1025257 } 37 -26.3433819 } { 1 2 2 189.770279 { 1 2 0 10 { 1 2 0 8 { 2 0 7 -3.4995141 } { 2 0 5 -2.43418503 } 12 -5.93369865 } { 2 0 5 -2.16895509 } 17 -8.10265255 } { 1 2 1 21.9502525 { 2 0 7 -4.24531031 } { 2 0 7 -3.78548193 } 14 -8.03079224 } 31 -16.1334457 } 68 -42.4768181 } { 1 2 1 22.3156242 { 1 2 1 21.8263931 { 2 0 5 -3.58729696 } { 2 0 6 -4.13155222 } 11 -7.71884823 } { 2 0 11 -8.27089691 } 22 -15.989747 } 90 -58.466568 } { 1 2 1 48724.9609 { 1 2 2 322.277344 { 2 0 35 -29.6013145 } { 2 0 14 -13.4545488 } 49 -43.0558548 } { 2 0 6 -6.14496803 } 55 -49.2008209 } 145 -107.667419 } { 1 2 2 224.196747 { 1 2 1 83266.6719 { 2 0 8 -4.31005001 } { 1 2 1 130341.984 { 2 0 11 -5.40666199 } { 2 0 7 -3.65254378 } 18 -9.05920696 } 26 -13.3692551 } { 1 2 2 304.126221 { 1 2 1 98159.4531 { 2 0 9 -6.96189642 } { 2 0 10 -7.3018446 } 19 -14.2637415 } { 2 0 6 -5.35345221 } 25 -19.6171951 } 51 -32.9864464 } 196 -140.653839 } 420 -211.258514 } '
tRp32
(dp33
g6
g26
sg29
I1
sbag3
(S'1 -1 { 1 2 2 119.076523 { 1 2 2 30.2996101 { 1 2 2 13.6662216 { 1 2 2 6.86952114 { 2 0 13 -0.642614365 } { 2 0 7 -0.512204826 } 20 -1.15481913 } { 1 2 1 2.88846779 { 2 0 5 -1.32527494 } { 2 0 9 -0.638656139 } 14 -1.96393132 } 34 -3.11875081 } { 1 2 2 95.3590317 { 1 2 0 5.5 { 2 0 32 -10.9807625 } { 1 2 2 50.6487122 { 1 2 0 7.5 { 2 0 10 -0.908817887 } { 2 0 8 -1.26889908 } 18 -2.17771697 } { 1 2 0 6.5 { 2 0 14 -3.49553514 } { 1 2 2 83.430481 { 1 2 1 7.97256947 { 2 0 5 -0.535380006 } { 1 2 2 68.0112457 { 1 2 2 52.6946335 { 2 0 5 -1.21905994 } { 2 0 5 -1.09092903 } 10 -2.30998898 } { 2 0 11 -2.06144881 } 21 -4.37143803 } 26 -4.90681839 } { 2 0 9 -2.14460897 } 35 -7.05142832 } 49 -10.5469608 } 67 -12.7246819 } 99 -23.7054367 } { 1 2 2 105.57019 { 2 0 9 -3.96916246 } { 1 2 1 13.8884659 { 1 2 0 6 { 2 0 7 -2.20683694 } { 2 0 6 -2.19318795 } 13 -4.40002489 } { 2 0 7 -2.06819201 } 20 -6.46821737 } 29 -10.437376 } 128 -34.1428223 } 162 -37.2615623 } { 2 0 258 -169.662399 } 420 -206.923965 } '
tRp34
(dp35
g6
g26
sg29
I1
sbag3
(S'1 -1 { 1 2 2 147.244263 { 2 0 210 -64.2462082 } { 1 2 0 7.5 { 1 2 2 277.035858 { 1 2 0 5.5 { 1 2 2 164.531662 { 2 0 6 -3.79440188 } { 1 2 1 14.9107513 { 2 0 10 -7.67109919 } { 1 2 1 47940.1641 { 2 0 8 -5.59025812 } { 2 0 5 -3.58250999 } 13 -9.17276764 } 23 -16.8438663 } 29 -20.6382675 } { 1 2 2 241.304871 { 1 2 1 21.1761932 { 1 2 1 17.5737953 { 2 0 9 -6.50022268 } { 2 0 5 -3.20240188 } 14 -9.70262527 } { 1 2 1 77063.7344 { 1 2 2 173.227264 { 2 0 5 -2.51140094 } { 2 0 6 -3.03783607 } 11 -5.54923725 } { 2 0 6 -3.42730808 } 17 -8.97654533 } 31 -18.6791725 } { 1 2 1 22.0462456 { 2 0 5 -3.60928917 } { 1 2 1 23.8305702 { 2 0 6 -4.66514015 } { 2 0 6 -4.46096802 } 12 -9.12610817 } 17 -12.7353983 } 48 -31.4145622 } 77 -52.0528412 } { 1 2 2 322.277344 { 1 2 2 311.287598 { 1 2 2 300.502625 { 2 0 16 -13.1945133 } { 2 0 6 -5.07829809 } 22 -18.27281 } { 1 2 0 6.5 { 2 0 9 -7.78619957 } { 2 0 5 -4.4531002 } 14 -12.2393017 } 36 -30.5121078 } { 1 2 1 25.8866959 { 2 0 5 -5.0674901 } { 1 2 1 55614.6172 { 2 0 7 -6.68921518 } { 2 0 11 -10.084199 } 18 -16.7734108 } 23 -21.8408966 } 59 -52.3530159 } 136 -104.405853 } { 1 2 0 9.5 { 2 0 53 -32.93507 } { 1 2 2 229.936691 { 2 0 12 -7.12243509 } { 2 0 9 -6.55813694 } 21 -13.6805687 } 74 -46.6156502 } 210 -151.021484 } 420 -215.267807 } '
tRp36
(dp37
g6
g26
sg29
I1
sbag3
(S'1 -1 { 1 2 2 147.244263 { 1 2 0 8.5 { 1 2 2 89.9847412 { 1 2 1 4.55798912 { 1 2 2 21.8173161 { 1 2 2 8.90587616 { 2 0 9 -0.439683914 } { 2 0 9 -1.58914316 } 18 -2.02882719 } { 1 2 1 3.49673223 { 1 2 1 2.63854003 { 2 0 8 -3.76161957 } { 2 0 8 -4.71573067 } 16 -8.47735023 } { 2 0 9 -3.63181305 } 25 -12.1091614 } 43 -14.137989 } { 1 2 2 54.9136276 { 1 2 0 7.5 { 2 0 30 -4.34688807 } { 2 0 6 -1.42115688 } 36 -5.76804638 } { 1 2 2 77.6556778 { 2 0 24 -5.91097498 } { 1 2 2 85.7412415 { 1 2 2 82.5792999 { 2 0 9 -2.40862894 } { 2 0 6 -1.72229087 } 15 -4.13091993 } { 2 0 5 -1.29737997 } 20 -5.42830038 } 44 -11.3392773 } 80 -17.1073246 } 123 -31.2452965 } { 1 2 1 10.1224327 { 1 2 2 125.539085 { 1 2 2 102.534546 { 2 0 5 -1.92519999 } { 2 0 12 -3.90755367 } 17 -5.83275414 } { 2 0 9 -3.641114 } 26 -9.47386646 } { 1 2 2 99.7005463 { 2 0 6 -2.1005249 } { 1 2 0 5.5 { 2 0 5 -2.95952392 } { 1 2 2 136.320175 { 1 2 2 113.017746 { 2 0 8 -3.50233221 } { 1 2 1 12.7838993 { 2 0 5 -2.4360261 } { 1 2 1 17660.6406 { 2 0 5 -2.81818008 } { 2 0 7 -3.4885788 } 12 -6.30675936 } 17 -8.74278545 } 25 -12.2451153 } { 2 0 9 -3.84407187 } 34 -16.0891876 } 39 -19.048708 } 45 -21.1492329 } 71 -30.6231098 } 194 -61.868412 } { 1 2 0 11.5 { 1 2 1 11.9083595 { 1 2 1 6.81251907 { 2 0 6 -0.110372998 } { 2 0 7 -0.894617081 } 13 -1.0049901 } { 2 0 7 -1.96296 } 20 -2.96794939 } { 1 2 2 67.7003326 { 2 0 6 -0.536384702 } { 2 0 7 -1.98853314 } 13 -2.5249176 } 33 -5.49286842 } 227 -67.3612823 } { 1 2 2 275.636536 { 1 2 2 231.531052 { 1 2 0 6.5 { 1 2 2 165.920044 { 1 2 2 154.488617 { 2 0 9 -6.29221869 } { 1 2 0 5.5 { 2 0 7 -4.51093292 } { 2 0 6 -2.88141012 } 13 -7.39234352 } 22 -13.6845589 } { 1 2 2 203.97287 { 1 2 1 23384.4512 { 2 0 6 -4.85752296 } { 2 0 6 -4.62976789 } 12 -9.48729038 } { 2 0 10 -6.32077503 } 22 -15.8080635 } 44 -29.4926319 } { 1 2 0 7.5 { 1 2 1 20.667099 { 2 0 6 -3.58064413 } { 1 2 1 22.5696831 { 2 0 7 -3.62899613 } { 2 0 5 -2.99667311 } 12 -6.625669 } 18 -10.2063131 } { 1 2 1 81519.7578 { 1 2 1 21.5868454 { 2 0 6 -2.89695978 } { 1 2 1 38995.5312 { 2 0 6 -3.36492205 } { 2 0 6 -3.55314589 } 12 -6.91806793 } 18 -9.81502724 } { 1 2 2 190.870453 { 2 0 12 -5.39635229 } { 2 0 5 -2.74278092 } 17 -8.13913345 } 35 -17.9541607 } 53 -28.160471 } 97 -57.6531067 } { 1 2 2 243.012268 { 1 2 2 237.657959 { 2 0 9 -6.21479988 } { 2 0 5 -3.56156492 } 14 -9.77636433 } { 1 2 1 22.1786003 { 2 0 7 -5.03541088 } { 1 2 2 253.164673 { 2 0 5 -3.66203403 } { 2 0 7 -5.36367035 } 12 -9.02570438 } 19 -14.0611172 } 33 -23.837471 } 130 -81.4905624 } { 1 2 0 8.5 { 2 0 54 -48.8845406 } { 2 0 9 -6.78939247 } 63 -55.6739349 } 193 -137.164551 } 420 -204.525711 } '
tRp38
(dp39
g6
g26
sg29
I1
sbag3
(S'1 -1 { 1 2 1 18.448101 { 1 2 2 119.659004 { 1 2 0 5.5 { 1 2 2 21.8173161 { 1 2 1 1.33503842 { 2 0 5 -0.373895496 } { 1 2 1 2.46516991 { 2 0 10 -1.93357086 } { 2 0 5 -0.380798608 } 15 -2.3143692 } 20 -2.68826509 } { 1 2 2 62.1553841 { 1 2 2 36.2470818 { 1 2 1 2.12835884 { 2 0 8 -2.73766065 } { 2 0 6 -2.35008979 } 14 -5.08775043 } { 1 2 2 48.762558 { 2 0 5 -3.01384616 } { 2 0 5 -3.69202304 } 10 -6.70586967 } 24 -11.7936201 } { 1 2 2 86.2908325 { 2 0 5 -1.36948299 } { 2 0 6 -2.02521396 } 11 -3.39469695 } 35 -15.1883163 } 55 -17.8765831 } { 1 2 2 70.2060318 { 2 0 42 -6.1093545 } { 1 2 0 7.5 { 1 2 2 93.3025665 { 2 0 7 -2.29938817 } { 2 0 6 -2.88419914 } 13 -5.18358707 } { 1 2 1 16.241869 { 1 2 2 100.644302 { 2 0 9 -2.23085904 } { 2 0 9 -2.6266129 } 18 -4.85747242 } { 2 0 5 -1.90992308 } 23 -6.76739597 } 36 -11.9509783 } 78 -18.0603352 } 133 -35.936924 } { 1 2 1 9.00332069 { 2 0 8 -3.11153483 } { 1 2 0 5.5 { 2 0 14 -9.67450428 } { 1 2 1 13.9618759 { 1 2 2 130.251678 { 2 0 9 -4.22853804 } { 2 0 6 -3.32237482 } 15 -7.55091286 } { 2 0 8 -3.36243963 } 23 -10.9133539 } 37 -20.5878563 } 45 -23.699398 } 178 -59.6363182 } { 1 2 1 4492.10547 { 1 2 2 231.531052 { 1 2 2 189.770279 { 1 2 0 6.5 { 2 0 6 -2.54869795 } { 2 0 7 -3.4995141 } 13 -6.04821157 } { 2 0 18 -10.755043 } 31 -16.8032532 } { 1 2 0 7.5 { 1 2 1 25.2901878 { 1 2 2 275.507874 { 1 2 0 6.5 { 2 0 5 -3.91934514 } { 2 0 9 -6.48863649 } 14 -10.4079828 } { 1 2 2 311.287598 { 2 0 25 -20.9202805 } { 2 0 7 -6.30229378 } 32 -27.2225723 } 46 -37.6305504 } { 2 0 7 -6.47274542 } 53 -44.1032906 } { 1 2 0 8.5 { 2 0 5 -3.42790008 } { 1 2 1 29.6895409 { 2 0 5 -3.67110991 } { 2 0 8 -6.17287636 } 13 -9.8439846 } 18 -13.2718859 } 71 -57.3751869 } 102 -74.1784363 } { 1 2 1 42788.8633 { 1 2 2 96.667923 { 1 2 0 5.5 { 2 0 10 -2.6365478 } { 1 2 2 60.8418961 { 2 0 5 -0.940953016 } { 2 0 10 -1.95728183 } 15 -2.89823532 } 25 -5.53478289 } { 1 2 0 5.5 { 2 0 8 -4.46060658 } { 2 0 11 -4.84419107 } 19 -9.30479813 } 44 -14.8395815 } { 1 2 0 5.5 { 1 2 2 297.855835 { 2 0 9 -6.72600412 } { 1 2 2 350.62207 { 2 0 14 -12.6617422 } { 2 0 5 -5.09159994 } 19 -17.7533417 } 28 -24.4793491 } { 1 2 2 197.615753 { 1 2 2 117.378746 { 1 2 1 74175.2344 { 2 0 6 -1.17434502 } { 2 0 5 -1.34988105 } 11 -2.52422619 } { 1 2 1 64109.7852 { 2 0 13 -6.90615892 } { 1 2 2 176.42395 { 2 0 8 -3.25686836 } { 2 0 9 -4.48379993 } 17 -7.74066734 } 30 -14.6468306 } 41 -17.1710548 } { 1 2 2 240.734131 { 1 2 2 211.043793 { 2 0 5 -3.48224878 } { 1 2 1 153739.281 { 2 0 5 -2.90950918 } { 2 0 5 -3.46480012 } 10 -6.37430859 } 15 -9.85655689 } { 1 2 1 104527.477 { 2 0 5 -3.80859995 } { 2 0 7 -5.83753538 } 12 -9.64613628 } 27 -19.5026894 } 68 -36.6737404 } 96 -61.1531143 } 140 -75.9926987 } 242 -150.171112 } 420 -209.807526 } '
tRp40
(dp41
g6
g26
sg29
I1
sbag3
(S'1 -1 { 1 2 1 14.6210842 { 2 0 143 -49.5815277 } { 1 2 2 156.816895 { 2 0 100 -33.2574997 } { 1 2 2 275.636536 { 1 2 0 5.5 { 1 2 1 14.9107513 { 2 0 5 -4.57084513 } { 2 0 14 -9.87385273 } 19 -14.4446955 } { 1 2 2 224.196747 { 1 2 1 26.2795448 { 1 2 2 203.000092 { 1 2 2 183.531143 { 1 2 0 7.5 { 2 0 7 -3.37336302 } { 2 0 5 -2.47041488 } 12 -5.84377718 } { 2 0 5 -2.57699299 } 17 -8.42076969 } { 2 0 7 -4.02402449 } 24 -12.4447966 } { 1 2 1 66755.6406 { 1 2 1 54213.4609 { 2 0 5 -3.160882 } { 2 0 6 -4.02762604 } 11 -7.18850803 } { 2 0 13 -7.28738642 } 24 -14.475894 } 48 -26.9206924 } { 1 2 2 243.012268 { 2 0 18 -12.1290665 } { 1 2 1 39149.3398 { 2 0 14 -10.092948 } { 2 0 8 -6.01072359 } 22 -16.1036739 } 40 -28.2327309 } 88 -55.1534348 } 107 -69.598114 } { 1 2 2 340.141815 { 1 2 2 311.287598 { 1 2 1 20.3295975 { 2 0 6 -4.75026417 } { 1 2 1 21.038723 { 2 0 5 -4.33160019 } { 2 0 11 -9.03434467 } 16 -13.3659477 } 22 -18.1162052 } { 1 2 0 7.5 { 1 2 0 6.5 { 1 2 0 3.5 { 2 0 6 -5.23296022 } { 2 0 12 -10.5792198 } 18 -15.8121796 } { 2 0 6 -5.73423004 } 24 -21.5464058 } { 2 0 5 -4.25918484 } 29 -25.8055916 } 51 -43.9218025 } { 1 2 1 77950.1016 { 2 0 12 -12.4315205 } { 2 0 7 -6.58553886 } 19 -19.0170593 } 70 -62.9388542 } 177 -132.537003 } 277 -165.79454 } 420 -215.375946 } '
tRp42
(dp43
g6
g26
sg29
I1
sbag3
(S'1 -1 { 1 2 2 156.816895 { 1 2 2 95.3590317 { 1 2 1 4.55798912 { 1 2 1 2.17489195 { 1 2 2 11.4959269 { 2 0 8 -0.902806461 } { 2 0 13 -4.33463097 } 21 -5.23743773 } { 2 0 18 -7.85285282 } 39 -13.090292 } { 1 2 2 45.1905136 { 1 2 1 5.49908924 { 2 0 8 -1.23374796 } { 1 2 1 8.92398357 { 2 0 7 -0.387570828 } { 2 0 17 -1.44390917 } 24 -1.83148015 } 32 -3.06522727 } { 1 2 0 6.5 { 1 2 2 58.1978722 { 2 0 14 -2.8345499 } { 1 2 2 80.1787567 { 1 2 1 8.10886765 { 2 0 6 -1.90562189 } { 2 0 9 -2.52950978 } 15 -4.43513203 } { 2 0 11 -2.96966839 } 26 -7.40480185 } 40 -10.2393522 } { 1 2 2 66.5485077 { 2 0 10 -1.53990221 } { 1 2 1 74318.5938 { 1 2 1 20017.9531 { 2 0 8 -1.82272398 } { 2 0 8 -1.5136869 } 16 -3.33641148 } { 2 0 8 -1.87933612 } 24 -5.21574688 } 34 -6.755651 } 74 -16.9950047 } 106 -20.0602245 } 145 -33.1505089 } { 1 2 0 9.5 { 1 2 1 10.1224327 { 1 2 2 125.539085 { 1 2 2 121.167587 { 2 0 7 -2.38871098 } { 2 0 6 -2.20304394 } 13 -4.59175491 } { 2 0 8 -3.20891571 } 21 -7.80067205 } { 1 2 1 12.0326281 { 1 2 2 119.221642 { 2 0 5 -2.44961596 } { 2 0 5 -3.26851988 } 10 -5.71813583 } { 1 2 2 116.837265 { 1 2 0 7 { 2 0 7 -2.82295799 } { 2 0 5 -2.09542894 } 12 -4.91838694 } { 2 0 46 -22.6709366 } 58 -27.5893288 } 68 -33.3074646 } 89 -41.1081314 } { 1 2 1 121334.539 { 1 2 0 10.5 { 2 0 9 -2.61975908 } { 2 0 8 -2.70249605 } 17 -5.32225466 } { 2 0 6 -2.19794989 } 23 -7.52020454 } 112 -48.6283379 } 257 -81.7788162 } { 1 2 2 243.012268 { 1 2 1 14.9107513 { 2 0 9 -6.67438936 } { 1 2 1 26.2631989 { 1 2 2 202.433472 { 1 2 1 22.5696831 { 1 2 0 7.5 { 2 0 7 -3.62899613 } { 2 0 7 -3.45858073 } 14 -7.08757639 } { 2 0 5 -2.32385612 } 19 -9.41143227 } { 1 2 2 220.800049 { 2 0 7 -4.26251745 } { 2 0 5 -3.23958683 } 12 -7.50210476 } 31 -16.913538 } { 1 2 2 194.801208 { 1 2 1 70312.7188 { 2 0 7 -4.24023104 } { 2 0 6 -2.69817591 } 13 -6.93840742 } { 1 2 1 65420.4961 { 2 0 9 -6.57718468 } { 1 2 1 88501.8438 { 2 0 9 -5.20388126 } { 1 2 0 10.5 { 2 0 7 -4.49636316 } { 2 0 5 -3.29363203 } 12 -7.78999424 } 21 -12.9938755 } 30 -19.5710602 } 43 -26.5094719 } 74 -43.4230118 } 83 -50.0973892 } { 1 2 2 300.502625 { 1 2 2 275.636536 { 1 2 2 265.355713 { 2 0 10 -7.68787766 } { 2 0 8 -5.95937014 } 18 -13.6472473 } { 1 2 0 8 { 2 0 15 -12.4432487 } { 2 0 6 -4.58672667 } 21 -17.0299759 } 39 -30.6772194 } { 1 2 2 340.141815 { 1 2 2 322.277344 { 1 2 1 21.9613686 { 2 0 7 -6.03303766 } { 2 0 6 -5.28834009 } 13 -11.3213787 } { 1 2 1 29457.3848 { 2 0 9 -8.42352009 } { 2 0 10 -8.67809391 } 19 -17.1016121 } 32 -28.422987 } { 2 0 9 -8.79959774 } 41 -37.2225838 } 80 -67.8998184 } 163 -117.997231 } 420 -199.776016 } '
tRp44
(dp45
g6
g26
sg29
I1
sbag3
(S'1 -1 { 1 2 2 147.244263 { 1 2 0 9.5 { 1 2 1 10.5799818 { 1 2 2 29.4893723 { 1 2 2 8.90587616 { 1 2 1 2.33809376 { 2 0 7 -0.37053141 } { 2 0 6 -0.44378522 } 13 -0.814316511 } { 1 2 1 2.89524937 { 2 0 9 -2.22180104 } { 2 0 7 -0.713141382 } 16 -2.93494225 } 29 -3.749259 } { 1 2 1 3.43419123 { 1 2 2 39.3621902 { 2 0 6 -2.77458906 } { 2 0 9 -5.2545805 } 15 -8.02916908 } { 1 2 0 6.5 { 2 0 46 -14.3244343 } { 1 2 2 66.5485077 { 2 0 5 -0.613167882 } { 2 0 10 -2.47192073 } 15 -3.08508849 } 61 -17.4095192 } 76 -25.4387054 } 105 -29.1879501 } { 1 2 2 96.667923 { 1 2 1 17447.625 { 2 0 5 -0.622109294 } { 1 2 0 5.5 { 1 2 1 21588.623 { 2 0 5 -1.43132806 } { 2 0 5 -1.62473905 } 10 -3.05606675 } { 1 2 0 6.5 { 2 0 5 -1.006724 } { 2 0 11 -2.02108288 } 16 -3.027807 } 26 -6.08387423 } 31 -6.70598364 } { 1 2 0 5.5 { 1 2 1 11036.6816 { 2 0 5 -3.26968408 } { 2 0 11 -5.47885323 } 16 -8.74853706 } { 1 2 2 113.017746 { 1 2 1 12.6574554 { 2 0 5 -1.64748883 } { 1 2 1 16543.8965 { 2 0 5 -2.50117302 } { 2 0 5 -1.96278906 } 10 -4.46396208 } 15 -6.1114521 } { 1 2 2 139.981033 { 1 2 0 7.5 { 2 0 10 -5.39535522 } { 2 0 6 -2.83208585 } 16 -8.22744179 } { 2 0 5 -2.01954198 } 21 -10.2469854 } 36 -16.3584347 } 52 -25.106966 } 83 -31.8129692 } 188 -61.0008774 } { 1 2 2 61.8898697 { 1 2 1 25489.1934 { 2 0 7 -0.834953606 } { 2 0 7 -0.66500473 } 14 -1.4999584 } { 1 2 2 100.644302 { 2 0 10 -2.24870992 } { 1 2 1 121334.539 { 2 0 9 -2.63562608 } { 2 0 6 -2.19794989 } 15 -4.83357573 } 25 -7.0822854 } 39 -8.58224487 } 227 -69.5831528 } { 1 2 0 4.5 { 1 2 2 268.424469 { 2 0 7 -5.03761005 } { 1 2 1 48724.9609 { 2 0 11 -10.1153603 } { 2 0 9 -8.79842567 } 20 -18.913784 } 27 -23.951395 } { 1 2 0 7.5 { 1 2 2 277.035858 { 1 2 2 241.304871 { 2 0 61 -38.7589493 } { 1 2 2 253.164673 { 2 0 5 -3.4841702 } { 1 2 1 22.0462456 { 2 0 8 -5.79245615 } { 2 0 8 -6.16270924 } 16 -11.9551659 } 21 -15.4393368 } 82 -54.1983032 } { 1 2 2 322.277344 { 1 2 1 21.038723 { 2 0 7 -5.99097109 } { 2 0 11 -9.33404541 } 18 -15.325017 } { 2 0 10 -9.56474972 } 28 -24.8897667 } 110 -79.0880508 } { 1 2 2 224.196747 { 1 2 2 200.661346 { 1 2 2 189.135162 { 2 0 8 -3.73905587 } { 2 0 7 -3.77871466 } 15 -7.51777077 } { 1 2 1 38992.1445 { 2 0 5 -3.06873512 } { 2 0 6 -3.65048409 } 11 -6.71921968 } 26 -14.2369862 } { 1 2 1 28.5559044 { 2 0 6 -4.10143185 } { 2 0 24 -17.4801121 } 30 -21.5815449 } 56 -35.8185425 } 166 -114.90657 } 193 -138.857971 } 420 -208.441071 } '
tRp46
(dp47
g6
g26
sg29
I1
sbaS'Random Forest'
p48
cOrange.orange
__pickleLoaderDomain
p49
(cOrange.data
Domain
p50
cOrange.core
VarList
p51
(tRp52
g7
(g8
(dp53
g10
Nsg11
I1
sg12
I2
sg13
I0
sg14
Nsg15
I0
sg16
I0
sg17
F0
sg18
F-1
sg19
I0
sg20
F-1
sS'attributes'
p54
(dp55
sg23
I1
sS'name'
p56
S'F_0'
p57
stRp58
(dp59
g28
Nsbag7
(g8
(dp60
g10
Nsg11
I1
sg12
I2
sg13
I0
sg14
Nsg15
I0
sg16
I15
sg17
F0
sg18
F-1
sg19
I0
sg20
F-1
sS'attributes'
p61
(dp62
sg23
I1
sS'name'
p63
S'F_1'
p64
stRp65
(dp66
g28
Nsbag7
(g8
(dp67
g10
Nsg11
I1
sg12
I2
sg13
I0
sg14
Nsg15
I0
sg16
I6
sg17
F0
sg18
F-1
sg19
I0
sg20
F-1
sS'attributes'
p68
(dp69
sg23
I1
sS'name'
p70
S'F_2'
p71
stRp72
(dp73
g28
Nsba(dbg26
g51
(tRp74
(db(d(dtRp75
(dbg26
g74
tRp76
(dp77
S'name'
p78
g48
sS'domain'
p79
g75
sS'single_class'
p80
I01
sS'classifiers'
p81
g2
sS'class_vars'
p82
g74
sb.