cOrange.classification.svm
SVMClassifier
p1
(cOrange.classification.svm
_SVMClassifier
p2
(cOrange.orange
__pickleLoaderDomain
p3
(cOrange.data
Domain
p4
cOrange.core
VarList
p5
(tRp6
cOrange.orange
__pickleLoaderEnumVariable
p7
(cOrange.feature
Discrete
p8
(dp9
S'source_variable'
p10
NsS'ordered'
p11
I0
sS'name'
p12
S'Disparity Norm'
p13
sS'var_type'
p14
I1
sS'random_generator'
p15
NsS'distributed'
p16
I0
sS'values'
p17
cOrange.core
StringList
p18
(tRp19
S'0.0401642973'
aS'0.1943173133'
aS'0.262474262'
aS'0.2985194634'
aS'0.318714042'
aS'0.343500156'
aS'0.3447946595'
aS'0.3570198967'
aS'0.393220454'
aS'0.4893737519'
aS'0.5223348532'
aS'0.5515146467'
aS'0.5730623597'
aS'0.5829038503'
aS'0.7521129494'
aS'0.8770136383'
aS'0.8825670454'
aS'0'
aS'0.0027253342'
aS'0.0027489788'
aS'0.0028699507'
aS'0.0089456644'
aS'0.0089723469'
aS'0.0099440128'
aS'0.0113951634'
aS'0.0120258382'
aS'0.0123777379'
aS'0.0138015947'
aS'0.015011372'
aS'0.0151414177'
aS'0.0165160978'
aS'0.0175472587'
aS'0.0200781869'
aS'0.0212169165'
aS'0.025634879'
aS'0.0300031353'
aS'0.0355322755'
aS'0.0366796352'
aS'0.0394209608'
aS'0.041607471'
aS'0.0418385312'
aS'0.0446914743'
aS'0.0487985846'
aS'0.0496568591'
aS'0.0514726424'
aS'0.0531733561'
aS'0.0548059522'
aS'0.0581998242'
aS'0.0587963509'
aS'0.0590279335'
aS'0.0616761303'
aS'0.0632735688'
aS'0.0643939588'
aS'0.0645311776'
aS'0.0674689487'
aS'0.0679187479'
aS'0.0729469588'
aS'0.0732225276'
aS'0.073236769'
aS'0.0746108528'
aS'0.0746822313'
aS'0.0756620062'
aS'0.0760529125'
aS'0.084087329'
aS'0.0853766605'
aS'0.0877451864'
aS'0.0892821179'
aS'0.0893066942'
aS'0.0969099799'
aS'0.0980859865'
aS'0.1012729999'
aS'0.101968609'
aS'0.1064205079'
aS'0.1077233158'
aS'0.1125826972'
aS'0.1185271739'
aS'0.1208197975'
aS'0.1209896655'
aS'0.1216271631'
aS'0.1228168213'
aS'0.1234676537'
aS'0.123663329'
aS'0.1268477304'
aS'0.1298125915'
aS'0.1369651143'
aS'0.1377405608'
aS'0.138216421'
aS'0.139338698'
aS'0.1422333189'
aS'0.1482156728'
aS'0.1487352369'
aS'0.1498149176'
aS'0.1506708811'
aS'0.1507845777'
aS'0.1510556899'
aS'0.1516392434'
aS'0.1524578796'
aS'0.1544034137'
aS'0.1596088609'
aS'0.1641831417'
aS'0.165111342'
aS'0.1659061622'
aS'0.1671576842'
aS'0.1694654024'
aS'0.1701703374'
aS'0.1711653212'
aS'0.171275641'
aS'0.175176652'
aS'0.1771896765'
aS'0.1780625205'
aS'0.1780868085'
aS'0.1784548803'
aS'0.180758735'
aS'0.1814895534'
aS'0.1821069624'
aS'0.1832395294'
aS'0.1834710102'
aS'0.1836931384'
aS'0.1837507091'
aS'0.1837936108'
aS'0.1839734331'
aS'0.185026618'
aS'0.1851384735'
aS'0.1852050872'
aS'0.185941795'
aS'0.1872953791'
aS'0.1877489222'
aS'0.1881708205'
aS'0.19095833'
aS'0.1918405945'
aS'0.1924375669'
aS'0.192805207'
aS'0.193055704'
aS'0.1979582174'
aS'0.1988104804'
aS'0.198977596'
aS'0.2014370344'
aS'0.2059735996'
aS'0.2073273939'
aS'0.2075806517'
aS'0.2084270142'
aS'0.2085349043'
aS'0.2086331319'
aS'0.2099981581'
aS'0.2100895811'
aS'0.2106151528'
aS'0.2114020218'
aS'0.2119698312'
aS'0.2149623744'
aS'0.2176816374'
aS'0.2182744464'
aS'0.2201898015'
aS'0.220290341'
aS'0.2212005863'
aS'0.2217246415'
aS'0.2222679703'
aS'0.2238284863'
aS'0.2240403665'
aS'0.2240716363'
aS'0.2242974189'
aS'0.2247811635'
aS'0.2249685733'
aS'0.2260328899'
aS'0.2269320718'
aS'0.2276881739'
aS'0.2280513692'
aS'0.2286573431'
aS'0.2288001435'
aS'0.2298095109'
aS'0.2305706001'
aS'0.2306954845'
aS'0.2322719632'
aS'0.2340383148'
aS'0.2340728648'
aS'0.234737382'
aS'0.2362112542'
aS'0.2374549318'
aS'0.2403696059'
aS'0.2404902295'
aS'0.2430262809'
aS'0.2440004322'
aS'0.2443916835'
aS'0.2453744304'
aS'0.2456179533'
aS'0.2465924317'
aS'0.2470665619'
aS'0.2483488157'
aS'0.2484749719'
aS'0.2501744526'
aS'0.2530090588'
aS'0.2534038068'
aS'0.2543027375'
aS'0.2552103653'
aS'0.2555459871'
aS'0.2561655624'
aS'0.2563806853'
aS'0.2586080387'
aS'0.2607398095'
aS'0.2623369903'
aS'0.2630805284'
aS'0.2649166488'
aS'0.2650859584'
aS'0.2666786437'
aS'0.2668099661'
aS'0.2668494322'
aS'0.2713847921'
aS'0.2716646603'
aS'0.272559852'
aS'0.2735190014'
aS'0.2736058472'
aS'0.2744046809'
aS'0.2748164779'
aS'0.275558246'
aS'0.2757196133'
aS'0.2782241198'
aS'0.2785644108'
aS'0.2797464394'
aS'0.2813589729'
aS'0.2840604474'
aS'0.2847000649'
aS'0.2852539672'
aS'0.2855471696'
aS'0.287966493'
aS'0.2889514676'
aS'0.2913892385'
aS'0.2926872828'
aS'0.296099793'
aS'0.2964166863'
aS'0.2968816019'
aS'0.298151595'
aS'0.2987558113'
aS'0.29907311'
aS'0.2999633172'
aS'0.3009430498'
aS'0.3020798956'
aS'0.3025687419'
aS'0.3031158217'
aS'0.3031728927'
aS'0.303437604'
aS'0.3037137905'
aS'0.303883345'
aS'0.3052311017'
aS'0.3086879987'
aS'0.3090753272'
aS'0.311131878'
aS'0.311481424'
aS'0.3121302323'
aS'0.3127040738'
aS'0.3130282667'
aS'0.3168557362'
aS'0.3169717846'
aS'0.3170063508'
aS'0.3182304293'
aS'0.3213643589'
aS'0.3216557377'
aS'0.3226727146'
aS'0.3248125234'
aS'0.3260266912'
aS'0.3261079052'
aS'0.3264960742'
aS'0.3274540324'
aS'0.3277642518'
aS'0.3290575031'
aS'0.329327142'
aS'0.329699456'
aS'0.3328420681'
aS'0.3354331571'
aS'0.3355074741'
aS'0.3364506711'
aS'0.3368241582'
aS'0.337854389'
aS'0.338305139'
aS'0.3389530772'
aS'0.339115698'
aS'0.3404283631'
aS'0.3426933811'
aS'0.3429082067'
aS'0.3440127511'
aS'0.3461818284'
aS'0.3462398279'
aS'0.3465072853'
aS'0.3469747729'
aS'0.3479871204'
aS'0.3483715447'
aS'0.3488268347'
aS'0.349058305'
aS'0.3496530759'
aS'0.3514888737'
aS'0.3544447469'
aS'0.3561752869'
aS'0.3603674818'
aS'0.3614952058'
aS'0.3627170031'
aS'0.3628834716'
aS'0.3629565258'
aS'0.3633622195'
aS'0.3633986557'
aS'0.3638002755'
aS'0.3639082725'
aS'0.3646371318'
aS'0.3665042646'
aS'0.3678353823'
aS'0.3681359104'
aS'0.3683218465'
aS'0.3685371023'
aS'0.3685848968'
aS'0.3689224747'
aS'0.3699395138'
aS'0.370122977'
aS'0.3702939421'
aS'0.3707625189'
aS'0.3708422692'
aS'0.3711401838'
aS'0.372113762'
aS'0.3722491394'
aS'0.3732500098'
aS'0.3736126061'
aS'0.3742961614'
aS'0.3745128787'
aS'0.3750886629'
aS'0.3753608641'
aS'0.3757481118'
aS'0.3762774983'
aS'0.3765521916'
aS'0.3771997936'
aS'0.3773526079'
aS'0.3775644492'
aS'0.3784954745'
aS'0.3786967709'
aS'0.3809199617'
aS'0.3814591752'
aS'0.3817649022'
aS'0.3821198839'
aS'0.3837536082'
aS'0.3837896125'
aS'0.3846729068'
aS'0.3848870871'
aS'0.3860340957'
aS'0.3862233444'
aS'0.3865388234'
aS'0.387102175'
aS'0.3872443716'
aS'0.3875025171'
aS'0.3891445785'
aS'0.3906147635'
aS'0.3910994139'
aS'0.3912477058'
aS'0.3913994871'
aS'0.3914213998'
aS'0.391480971'
aS'0.3918309187'
aS'0.3925015232'
aS'0.3926042635'
aS'0.3928514476'
aS'0.3930129945'
aS'0.393715834'
aS'0.3937412139'
aS'0.3939541396'
aS'0.3951293752'
aS'0.3954354236'
aS'0.3975866209'
aS'0.3981567627'
aS'0.39831935'
aS'0.398474'
aS'0.4005673193'
aS'0.4018425818'
aS'0.4018517398'
aS'0.4032472744'
aS'0.4033968658'
aS'0.4036496309'
aS'0.4042284428'
aS'0.4047989532'
aS'0.4058248098'
aS'0.4069601222'
aS'0.4070022478'
aS'0.4072443093'
aS'0.4075571222'
aS'0.4079603762'
aS'0.4080273401'
aS'0.4090339942'
aS'0.4090918477'
aS'0.409595538'
aS'0.4098987566'
aS'0.4103908431'
aS'0.4104764983'
aS'0.4106087365'
aS'0.4131758444'
aS'0.4132127453'
aS'0.4137649432'
aS'0.4142117234'
aS'0.4150212645'
aS'0.4153814471'
aS'0.4173845182'
aS'0.4177913061'
aS'0.4181548349'
aS'0.4196908575'
aS'0.419961928'
aS'0.4201173804'
aS'0.420198723'
aS'0.4202171228'
aS'0.421443325'
aS'0.4215770591'
aS'0.4234587569'
aS'0.4244917958'
aS'0.4245066941'
aS'0.4254958633'
aS'0.4260906241'
aS'0.4285990595'
aS'0.4288416032'
aS'0.4292254345'
aS'0.4302782849'
aS'0.4308773277'
aS'0.4313364421'
aS'0.4325409022'
aS'0.4339131777'
aS'0.4341438798'
aS'0.4345189989'
aS'0.4356274605'
aS'0.4362412372'
aS'0.4379446413'
aS'0.437982771'
aS'0.4380216516'
aS'0.4380641522'
aS'0.4395626515'
aS'0.4399850859'
aS'0.4404763743'
aS'0.4406816469'
aS'0.4407567581'
aS'0.4408678887'
aS'0.4415648037'
aS'0.4422011245'
aS'0.4430249126'
aS'0.4430646417'
aS'0.4436080957'
aS'0.4438320307'
aS'0.4444729011'
aS'0.4451370411'
aS'0.4471395504'
aS'0.4487491239'
aS'0.4489768863'
aS'0.4511643508'
aS'0.4516482197'
aS'0.4517369085'
aS'0.4529885976'
aS'0.454593463'
aS'0.4551931034'
aS'0.4555422138'
aS'0.4558772081'
aS'0.4559189987'
aS'0.4564013907'
aS'0.4565158051'
aS'0.4570813684'
aS'0.4571964827'
aS'0.4582173626'
aS'0.4585107723'
aS'0.4590288322'
aS'0.4605318683'
aS'0.4608863926'
aS'0.4612682889'
aS'0.4616695527'
aS'0.4617374279'
aS'0.4645689944'
aS'0.4649801915'
aS'0.4654587573'
aS'0.4664856246'
aS'0.4686485681'
aS'0.469116481'
aS'0.4691307207'
aS'0.4702027957'
aS'0.4707648639'
aS'0.4711267187'
aS'0.4739258925'
aS'0.4749811382'
aS'0.475052701'
aS'0.4751270834'
aS'0.4751593919'
aS'0.4781361932'
aS'0.4794659428'
aS'0.480001164'
aS'0.4810044569'
aS'0.4821504807'
aS'0.4823861854'
aS'0.4824943157'
aS'0.4827669999'
aS'0.483155186'
aS'0.4850117168'
aS'0.4870402541'
aS'0.4883511037'
aS'0.4885136542'
aS'0.4902506397'
aS'0.490366424'
aS'0.4904233566'
aS'0.4904423782'
aS'0.4921240728'
aS'0.4950548387'
aS'0.4962292511'
aS'0.4966043834'
aS'0.496978656'
aS'0.4971824991'
aS'0.4978279736'
aS'0.4981626176'
aS'0.4982334606'
aS'0.4985464828'
aS'0.4990551476'
aS'0.4992206802'
aS'0.5001168642'
aS'0.5014091469'
aS'0.5017895659'
aS'0.5017907765'
aS'0.5020839153'
aS'0.5030522699'
aS'0.5033058087'
aS'0.5038112062'
aS'0.5045504271'
aS'0.5046687249'
aS'0.5050646048'
aS'0.5054404279'
aS'0.5055567439'
aS'0.5064604286'
aS'0.5070932046'
aS'0.5082575307'
aS'0.5094522696'
aS'0.510297072'
aS'0.5105166218'
aS'0.5109265572'
aS'0.5111130113'
aS'0.511961672'
aS'0.5125263655'
aS'0.5125803738'
aS'0.5127610436'
aS'0.5146104286'
aS'0.5147053178'
aS'0.5148723183'
aS'0.5153119204'
aS'0.5154642839'
aS'0.5155011997'
aS'0.5161774707'
aS'0.5169850083'
aS'0.5172008821'
aS'0.5173830265'
aS'0.5176156433'
aS'0.5178955089'
aS'0.5183458747'
aS'0.5186239'
aS'0.5190380055'
aS'0.5191944129'
aS'0.5194464007'
aS'0.520422648'
aS'0.5228552659'
aS'0.5233173447'
aS'0.5248107155'
aS'0.5255875155'
aS'0.5261836096'
aS'0.5265818907'
aS'0.5274029524'
aS'0.527736402'
aS'0.5279800013'
aS'0.5283931502'
aS'0.529044051'
aS'0.5292482652'
aS'0.5307487617'
aS'0.53212908'
aS'0.532252189'
aS'0.5323180317'
aS'0.5329478999'
aS'0.5344456867'
aS'0.5350185941'
aS'0.5356460643'
aS'0.5364985956'
aS'0.5372010264'
aS'0.5377927781'
aS'0.5377998752'
aS'0.5381620904'
aS'0.5395882992'
aS'0.5396815862'
aS'0.5418350711'
aS'0.5424219289'
aS'0.5425335442'
aS'0.5453478617'
aS'0.547574151'
aS'0.547882147'
aS'0.5481682878'
aS'0.548478804'
aS'0.5485769401'
aS'0.5486597612'
aS'0.5488725824'
aS'0.5491494063'
aS'0.5500163395'
aS'0.5505387428'
aS'0.5513851906'
aS'0.5535903823'
aS'0.5537442443'
aS'0.5553179262'
aS'0.5556365252'
aS'0.5563411508'
aS'0.5574858958'
aS'0.5578963824'
aS'0.5594285049'
aS'0.5603270085'
aS'0.5604021225'
aS'0.5618967313'
aS'0.5638760989'
aS'0.5643412753'
aS'0.5654496088'
aS'0.5662634019'
aS'0.5672848042'
aS'0.5688473533'
aS'0.569615321'
aS'0.5708340097'
aS'0.5709321025'
aS'0.5733536119'
aS'0.5737994975'
aS'0.5741084672'
aS'0.57605951'
aS'0.5768822986'
aS'0.5769139178'
aS'0.5773616999'
aS'0.5787131731'
aS'0.5796956823'
aS'0.5803598039'
aS'0.5803630925'
aS'0.5804281878'
aS'0.5805701055'
aS'0.5816275338'
aS'0.5828591053'
aS'0.5830470516'
aS'0.5830791535'
aS'0.5837889971'
aS'0.5839531695'
aS'0.5840947215'
aS'0.5844207965'
aS'0.5846464613'
aS'0.5850253307'
aS'0.5850600611'
aS'0.5853260457'
aS'0.5858698728'
aS'0.5861826487'
aS'0.5875217854'
aS'0.5879199422'
aS'0.5888222076'
aS'0.5890003314'
aS'0.5897967231'
aS'0.5909854388'
aS'0.5936923598'
aS'0.5948130724'
aS'0.5948596673'
aS'0.5949559487'
aS'0.5951690604'
aS'0.5955555158'
aS'0.5975721141'
aS'0.5976578787'
aS'0.5992387578'
aS'0.6002224109'
aS'0.6007757318'
aS'0.601584869'
aS'0.6017055'
aS'0.6024633282'
aS'0.6037578324'
aS'0.6043540597'
aS'0.6043594596'
aS'0.604586378'
aS'0.6046045033'
aS'0.6047248305'
aS'0.6055235366'
aS'0.6062892801'
aS'0.6073922526'
aS'0.607748486'
aS'0.6079018771'
aS'0.6079971618'
aS'0.6093698334'
aS'0.6094758847'
aS'0.610013695'
aS'0.6112371287'
aS'0.6112961904'
aS'0.6116321672'
aS'0.6123285565'
aS'0.6140200976'
aS'0.6141748213'
aS'0.6144627137'
aS'0.6146558689'
aS'0.6147582686'
aS'0.6176666344'
aS'0.6199917847'
aS'0.6203633875'
aS'0.6206456791'
aS'0.622655697'
aS'0.6236887991'
aS'0.6237349851'
aS'0.6251320213'
aS'0.6282049713'
aS'0.6293458303'
aS'0.629685177'
aS'0.6303567199'
aS'0.6313724667'
aS'0.631438484'
aS'0.6319817555'
aS'0.6325795701'
aS'0.6332565639'
aS'0.6339344446'
aS'0.6340995444'
aS'0.6355597971'
aS'0.6357449074'
aS'0.6359281743'
aS'0.6379222048'
aS'0.6381109418'
aS'0.6390204644'
aS'0.6391681197'
aS'0.6395089021'
aS'0.6397992215'
aS'0.6405423692'
aS'0.6408245013'
aS'0.6413383438'
aS'0.6413606518'
aS'0.6417493296'
aS'0.6419439582'
aS'0.6423488954'
aS'0.6433261279'
aS'0.6434272384'
aS'0.6444208701'
aS'0.6447093686'
aS'0.6454246368'
aS'0.6457676981'
aS'0.6458592151'
aS'0.6459138879'
aS'0.6467177089'
aS'0.6475907'
aS'0.6479704486'
aS'0.6488190362'
aS'0.6488954874'
aS'0.6493592446'
aS'0.6501995885'
aS'0.6518780715'
aS'0.6520527413'
aS'0.6523539474'
aS'0.6530697733'
aS'0.6551639615'
aS'0.6553319441'
aS'0.6554666263'
aS'0.6561285272'
aS'0.6561380385'
aS'0.656297027'
aS'0.6570265299'
aS'0.6571388871'
aS'0.6572699073'
aS'0.6579335326'
aS'0.658238043'
aS'0.6587540157'
aS'0.6587757126'
aS'0.6592247431'
aS'0.6597484262'
aS'0.6609716513'
aS'0.6612695277'
aS'0.661280828'
aS'0.6616197966'
aS'0.6616502626'
aS'0.6625754773'
aS'0.6635398499'
aS'0.6638188692'
aS'0.6648071413'
aS'0.6651505745'
aS'0.6656916622'
aS'0.6665873406'
aS'0.6677717562'
aS'0.6694518088'
aS'0.6697524699'
aS'0.6700990662'
aS'0.6710574642'
aS'0.671546749'
aS'0.6730242888'
aS'0.6760272629'
aS'0.6765481258'
aS'0.6788445765'
aS'0.6802560519'
aS'0.6815972622'
aS'0.682105408'
aS'0.682178568'
aS'0.6828806941'
aS'0.6833708673'
aS'0.6835153225'
aS'0.6858643849'
aS'0.6862204345'
aS'0.6866841911'
aS'0.6868197271'
aS'0.6874877376'
aS'0.690053482'
aS'0.6900870621'
aS'0.6908446545'
aS'0.6924316787'
aS'0.6948576115'
aS'0.6950898445'
aS'0.6961636536'
aS'0.6968088194'
aS'0.6988709871'
aS'0.699180173'
aS'0.6993796897'
aS'0.699680514'
aS'0.7001444021'
aS'0.7005238858'
aS'0.7013299863'
aS'0.7038062354'
aS'0.7044559377'
aS'0.7045804809'
aS'0.704803931'
aS'0.7063114605'
aS'0.7075207769'
aS'0.7129732821'
aS'0.7133244725'
aS'0.713895041'
aS'0.714765483'
aS'0.7154614449'
aS'0.7185425795'
aS'0.7210420296'
aS'0.7236623471'
aS'0.7238890142'
aS'0.7241006159'
aS'0.7246406946'
aS'0.7254825926'
aS'0.7275247975'
aS'0.7285828896'
aS'0.7305260268'
aS'0.7323176394'
aS'0.7332033299'
aS'0.7337876003'
aS'0.7354461413'
aS'0.7371214136'
aS'0.7372616167'
aS'0.7374437346'
aS'0.7385016036'
aS'0.73863576'
aS'0.7386857554'
aS'0.7392145359'
aS'0.7399167077'
aS'0.7401960298'
aS'0.7405008086'
aS'0.741041816'
aS'0.7412063866'
aS'0.7423082593'
aS'0.7434231763'
aS'0.745470568'
aS'0.7459855481'
aS'0.7478676911'
aS'0.7481049679'
aS'0.7481816029'
aS'0.7497391645'
aS'0.7522224997'
aS'0.7546106721'
aS'0.7563587536'
aS'0.7591491812'
aS'0.7592956253'
aS'0.7618157406'
aS'0.7643512706'
aS'0.7643891944'
aS'0.7656758291'
aS'0.7661767096'
aS'0.7683056931'
aS'0.7700276995'
aS'0.7701649055'
aS'0.7704009063'
aS'0.7713090372'
aS'0.7743556501'
aS'0.7743630439'
aS'0.7748212779'
aS'0.7751752895'
aS'0.7782651831'
aS'0.7800895379'
aS'0.7801435344'
aS'0.7812568644'
aS'0.7857808611'
aS'0.7857982255'
aS'0.7858073793'
aS'0.7869340269'
aS'0.7872376925'
aS'0.7873447682'
aS'0.7873571902'
aS'0.7883992005'
aS'0.7885269121'
aS'0.7885933552'
aS'0.7903523023'
aS'0.7920968887'
aS'0.7931727418'
aS'0.7932453699'
aS'0.7932808221'
aS'0.7952467378'
aS'0.7955632826'
aS'0.7956065974'
aS'0.7959385037'
aS'0.797843855'
aS'0.7985734175'
aS'0.8009454912'
aS'0.8023958699'
aS'0.8039037499'
aS'0.8060500164'
aS'0.8062295635'
aS'0.8067244358'
aS'0.8103613896'
aS'0.8107840358'
aS'0.8130812657'
aS'0.8134119639'
aS'0.8136368354'
aS'0.8141138921'
aS'0.8153950282'
aS'0.8179810401'
aS'0.8189406381'
aS'0.8206096039'
aS'0.821117694'
aS'0.821388484'
aS'0.8225142851'
aS'0.8234407399'
aS'0.8235634254'
aS'0.823667815'
aS'0.8246126728'
aS'0.8257534289'
aS'0.8259542318'
aS'0.8269343943'
aS'0.8281059239'
aS'0.8289803903'
aS'0.8309767055'
aS'0.8314050598'
aS'0.8327738481'
aS'0.8335488061'
aS'0.8344843408'
aS'0.8387122343'
aS'0.8398884761'
aS'0.8420289169'
aS'0.8436033688'
aS'0.8464159175'
aS'0.8474787101'
aS'0.8486141031'
aS'0.8492780653'
aS'0.8511438786'
aS'0.8513887231'
aS'0.8517640173'
aS'0.8521387919'
aS'0.8531018396'
aS'0.8543500348'
aS'0.8615584536'
aS'0.8628250166'
aS'0.864852805'
aS'0.8658000059'
aS'0.866440417'
aS'0.8678690363'
aS'0.8690172511'
aS'0.8701867661'
aS'0.8708672958'
aS'0.8713673358'
aS'0.8726158546'
aS'0.8762721645'
aS'0.8771531841'
aS'0.8806732095'
aS'0.8853187019'
aS'0.8883093085'
aS'0.8905724618'
aS'0.892747628'
aS'0.9064047836'
aS'0.9098697243'
aS'0.9140598355'
aS'0.9140826578'
aS'0.9166505177'
aS'0.9174754982'
aS'0.9206200363'
aS'0.9235163033'
aS'0.926110177'
aS'0.9275794888'
aS'0.9281606266'
aS'0.9285157683'
aS'0.9316398291'
aS'0.9344086218'
aS'0.9348850732'
aS'0.9359942434'
aS'0.936641536'
aS'0.9380039444'
aS'0.9405298712'
aS'0.9415620975'
aS'0.9421273936'
aS'0.9422635874'
aS'0.9436485972'
aS'0.9446348864'
aS'0.9478379054'
aS'0.9524386784'
aS'0.9525298024'
aS'0.9536406588'
aS'0.956947754'
aS'0.957774885'
aS'0.9607674328'
aS'0.968080566'
aS'0.9681178035'
aS'0.9732703296'
aS'0.9736791957'
aS'0.9771019292'
aS'0.9802805614'
aS'0.9876885463'
aS'0.9883060055'
aS'0.9906194044'
aS'0.9931237937'
aS'0.9941696657'
aS'0.9953471633'
aS'0.9964855369'
aS'0.9991272506'
aS'1'
a(dbsS'attributes'
p20
(dp21
sS'default_meta_id'
p22
I0
sS'base_value'
p23
I-1
stRp24
(dp25
S'get_value_from'
p26
Nsbag7
(g8
(dp27
g10
Nsg11
I0
sS'name'
p28
S'Percent Damage Norm'
p29
sg14
I1
sg15
Nsg16
I0
sg17
g18
(tRp30
S'0.0453317322'
aS'0.1471029721'
aS'0.314219954'
aS'0.3399379566'
aS'0.3540478335'
aS'0.3921745222'
aS'0.4103872711'
aS'0.4339037326'
aS'0.5314720304'
aS'0.6132292605'
aS'0.6447513259'
aS'0.7067947563'
aS'0.71430001'
aS'0.7563294306'
aS'0.8977284099'
aS'0.9160412289'
aS'0.9180426298'
aS'0'
aS'0.0029020314'
aS'0.0035024517'
aS'0.0051035725'
aS'0.0053037126'
aS'0.0059041329'
aS'0.0069048334'
aS'0.008105674'
aS'0.0085059542'
aS'0.0089062344'
aS'0.0092064445'
aS'0.010207145'
aS'0.0116081257'
aS'0.0131091764'
aS'0.0139097368'
aS'0.0146102272'
aS'0.0149104373'
aS'0.0151105774'
aS'0.0168117682'
aS'0.0175122586'
aS'0.0200140098'
aS'0.0232162514'
aS'0.0237166016'
aS'0.0239167417'
aS'0.0242169519'
aS'0.0248173722'
aS'0.0258180727'
aS'0.0261182828'
aS'0.0273191234'
aS'0.0274191934'
aS'0.0282197538'
aS'0.0299209447'
aS'0.0303212249'
aS'0.0318222756'
aS'0.0351245872'
aS'0.0366256379'
aS'0.0380266186'
aS'0.0390273191'
aS'0.0392274592'
aS'0.0394275993'
aS'0.0396277394'
aS'0.0402281597'
aS'0.0419293505'
aS'0.0433303312'
aS'0.0458320825'
aS'0.0479335535'
aS'0.0483338337'
aS'0.0505353748'
aS'0.0514360052'
aS'0.053137196'
aS'0.055038527'
aS'0.0557390173'
aS'0.0562393676'
aS'0.0580406284'
aS'0.0623436405'
aS'0.0629440608'
aS'0.0636445512'
aS'0.0641449014'
aS'0.0655458821'
aS'0.0662463725'
aS'0.0670469329'
aS'0.067347143'
aS'0.0676473531'
aS'0.0682477734'
aS'0.0712498749'
aS'0.0719503653'
aS'0.0724507155'
aS'0.0737516261'
aS'0.0773541479'
aS'0.0789552687'
aS'0.079555689'
aS'0.0807565296'
aS'0.0813569499'
aS'0.08155709'
aS'0.0841589112'
aS'0.0842589813'
aS'0.0854598219'
aS'0.0859601721'
aS'0.0878615031'
aS'0.0903632543'
aS'0.0912638847'
aS'0.0920644451'
aS'0.0927649355'
aS'0.0929650756'
aS'0.0935654958'
aS'0.0942659862'
aS'0.0943660562'
aS'0.0956669669'
aS'0.0966676674'
aS'0.0981687181'
aS'0.099969979'
aS'0.1006704693'
aS'0.1033723607'
aS'0.104072851'
aS'0.1057740418'
aS'0.1067747423'
aS'0.1075753027'
aS'0.1093765636'
aS'0.1100770539'
aS'0.1110777544'
aS'0.1111778245'
aS'0.1141799259'
aS'0.1156809767'
aS'0.1161813269'
aS'0.1181827279'
aS'0.1189832883'
aS'0.120384269'
aS'0.1215851096'
aS'0.1234864405'
aS'0.1252877014'
aS'0.1253877714'
aS'0.1254878415'
aS'0.1259881917'
aS'0.126488542'
aS'0.1289902932'
aS'0.1295907135'
aS'0.1297908536'
aS'0.1299909937'
aS'0.1304913439'
aS'0.1311918343'
aS'0.1316921845'
aS'0.1332933053'
aS'0.1335935155'
aS'0.1336935855'
aS'0.1344941459'
aS'0.1357950565'
aS'0.1360952667'
aS'0.1379965976'
aS'0.1395977184'
aS'0.1416991894'
aS'0.1430001001'
aS'0.1435004503'
aS'0.1453017112'
aS'0.1482037426'
aS'0.1492044431'
aS'0.1499049335'
aS'0.151105774'
aS'0.1522065446'
aS'0.1529070349'
aS'0.1543080156'
aS'0.1577103973'
aS'0.1590113079'
aS'0.1601120785'
aS'0.1626138297'
aS'0.1665165616'
aS'0.1679175423'
aS'0.1696187331'
aS'0.1705193636'
aS'0.1717202041'
aS'0.1727209046'
aS'0.173521465'
aS'0.1737216051'
aS'0.1769238467'
aS'0.179525668'
aS'0.1801260883'
aS'0.1808265786'
aS'0.1828279796'
aS'0.1833283298'
aS'0.1834283999'
aS'0.1835284699'
aS'0.18372861'
aS'0.1849294506'
aS'0.1853297308'
aS'0.1862303613'
aS'0.1866306414'
aS'0.1883318323'
aS'0.1885319724'
aS'0.1886320424'
aS'0.1891323927'
aS'0.1892324627'
aS'0.1896327429'
aS'0.1902331632'
aS'0.1903332333'
aS'0.1914340038'
aS'0.1922345642'
aS'0.1924347043'
aS'0.1936355449'
aS'0.1951365956'
aS'0.1966376464'
aS'0.1976383468'
aS'0.198038627'
aS'0.1982387671'
aS'0.1985389773'
aS'0.1986390473'
aS'0.1989392575'
aS'0.1995396778'
aS'0.2011407986'
aS'0.202141499'
aS'0.2033423396'
aS'0.2035424797'
aS'0.2066446513'
aS'0.2067447213'
aS'0.2073451416'
aS'0.2090463324'
aS'0.210147103'
aS'0.2126488542'
aS'0.2150505354'
aS'0.2151506054'
aS'0.2158510958'
aS'0.2165515861'
aS'0.2170519364'
aS'0.2173521465'
aS'0.2176523566'
aS'0.2179525668'
aS'0.218452917'
aS'0.2186530571'
aS'0.2192534774'
aS'0.2201541079'
aS'0.2230561393'
aS'0.2232562794'
aS'0.2235564895'
aS'0.2239567697'
aS'0.2255578905'
aS'0.2273591514'
aS'0.228660062'
aS'0.2308616031'
aS'0.2309616732'
aS'0.2317622336'
aS'0.232662864'
aS'0.2331632142'
aS'0.2344641249'
aS'0.2351646152'
aS'0.2355648954'
aS'0.2357650355'
aS'0.2370659462'
aS'0.2378665066'
aS'0.240868608'
aS'0.2411688182'
aS'0.2419693786'
aS'0.242870009'
aS'0.2429700791'
aS'0.2435704993'
aS'0.2450715501'
aS'0.2462723907'
aS'0.246972881'
aS'0.2539777844'
aS'0.2579805864'
aS'0.2593815671'
aS'0.2594816371'
aS'0.2610827579'
aS'0.2615831082'
aS'0.2630841589'
aS'0.263284299'
aS'0.2636845792'
aS'0.2667867507'
aS'0.2695887121'
aS'0.2727909537'
aS'0.2738917242'
aS'0.2753927749'
aS'0.277594316'
aS'0.2779945962'
aS'0.2789952967'
aS'0.2803962774'
aS'0.2810967677'
aS'0.2828980286'
aS'0.2832983088'
aS'0.2854998499'
aS'0.2859001301'
aS'0.2875012509'
aS'0.2879015311'
aS'0.2887020915'
aS'0.2892024417'
aS'0.2893025118'
aS'0.2896027219'
aS'0.2916041229'
aS'0.2917041929'
aS'0.2926048234'
aS'0.2927048934'
aS'0.2931051736'
aS'0.2963074152'
aS'0.2975082558'
aS'0.2990093065'
aS'0.299909937'
aS'0.300010007'
aS'0.3014109877'
aS'0.3036125288'
aS'0.3060142099'
aS'0.30611428'
aS'0.3070149104'
aS'0.3084158911'
aS'0.3085159612'
aS'0.3095166617'
aS'0.310117082'
aS'0.3108175723'
aS'0.3113179225'
aS'0.3114179926'
aS'0.312318623'
aS'0.3157210047'
aS'0.3158210748'
aS'0.316321425'
aS'0.3189232463'
aS'0.3207245072'
aS'0.3209246473'
aS'0.3214249975'
aS'0.3221254878'
aS'0.3241268888'
aS'0.3258280797'
aS'0.3276293405'
aS'0.3284299009'
aS'0.330531372'
aS'0.3317322125'
aS'0.3321324927'
aS'0.3323326328'
aS'0.3338336836'
aS'0.3350345242'
aS'0.3353347343'
aS'0.3354348044'
aS'0.3370359251'
aS'0.3382367657'
aS'0.3391373962'
aS'0.3394376063'
aS'0.3395376764'
aS'0.3404383068'
aS'0.3427399179'
aS'0.3439407585'
aS'0.3464425098'
aS'0.34694286'
aS'0.3486440508'
aS'0.3502451716'
aS'0.3508455919'
aS'0.3526468528'
aS'0.3532472731'
aS'0.3546482538'
aS'0.3573501451'
aS'0.3576503552'
aS'0.3589512659'
aS'0.3596517562'
aS'0.3599519664'
aS'0.361252877'
aS'0.3630541379'
aS'0.3631542079'
aS'0.3646552587'
aS'0.365255679'
aS'0.3658560993'
aS'0.3664565196'
aS'0.3701591114'
aS'0.3708596017'
aS'0.3719603723'
aS'0.3720604423'
aS'0.3724607225'
aS'0.3726608626'
aS'0.373461423'
aS'0.3744621235'
aS'0.3765635945'
aS'0.3767637346'
aS'0.3773641549'
aS'0.3827679376'
aS'0.3844691284'
aS'0.3862703893'
aS'0.3863704593'
aS'0.3865705994'
aS'0.3867707395'
aS'0.3878715101'
aS'0.3881717202'
aS'0.3894726308'
aS'0.391874312'
aS'0.3928750125'
aS'0.3929750826'
aS'0.3933753628'
aS'0.393975783'
aS'0.395977184'
aS'0.3970779546'
aS'0.3981787251'
aS'0.3982787952'
aS'0.4014810367'
aS'0.4027819474'
aS'0.4036825778'
aS'0.403982788'
aS'0.4048834184'
aS'0.4069848894'
aS'0.4079855899'
aS'0.4084859402'
aS'0.4087861503'
aS'0.4090863605'
aS'0.4092865006'
aS'0.4113879716'
aS'0.4123886721'
aS'0.4146902832'
aS'0.4152907035'
aS'0.4160912639'
aS'0.4176923847'
aS'0.4177924547'
aS'0.418292805'
aS'0.4198939257'
aS'0.4207945562'
aS'0.4210947663'
aS'0.4217952567'
aS'0.4233963775'
aS'0.4237966577'
aS'0.4239967978'
aS'0.4249974982'
aS'0.4268988292'
aS'0.4269988992'
aS'0.4270989693'
aS'0.4277994596'
aS'0.4281997398'
aS'0.4289002302'
aS'0.4301010707'
aS'0.432702892'
aS'0.4343040128'
aS'0.434604223'
aS'0.4377063945'
aS'0.4384068848'
aS'0.4386070249'
aS'0.4396077254'
aS'0.4397077955'
aS'0.4410087061'
aS'0.4415090563'
aS'0.4419093365'
aS'0.4424096868'
aS'0.4425097568'
aS'0.4427098969'
aS'0.4431101771'
aS'0.4433103172'
aS'0.4463124187'
aS'0.4486140298'
aS'0.4517162013'
aS'0.4524166917'
aS'0.4525167617'
aS'0.4526168318'
aS'0.4545181627'
aS'0.455018513'
aS'0.4558190734'
aS'0.4562193535'
aS'0.4567197038'
aS'0.4576203342'
aS'0.4577204043'
aS'0.4630241169'
aS'0.4631241869'
aS'0.4634243971'
aS'0.4660262184'
aS'0.4672270589'
aS'0.4675272691'
aS'0.4681276894'
aS'0.4685279696'
aS'0.4705293706'
aS'0.4706294406'
aS'0.4712298609'
aS'0.471430001'
aS'0.4717302111'
aS'0.4728309817'
aS'0.4751325928'
aS'0.4784349044'
aS'0.4788351846'
aS'0.479635745'
aS'0.4800360252'
aS'0.4802361653'
aS'0.4806364455'
aS'0.4814370059'
aS'0.481637146'
aS'0.4822375663'
aS'0.4826378465'
aS'0.4845391774'
aS'0.4881416992'
aS'0.4894426098'
aS'0.4902431702'
aS'0.4910437306'
aS'0.491744221'
aS'0.4963474432'
aS'0.4967477234'
aS'0.4976483538'
aS'0.4983488442'
aS'0.4986490543'
aS'0.5004503152'
aS'0.5024517162'
aS'0.5025517863'
aS'0.5030521365'
aS'0.5035524867'
aS'0.504152907'
aS'0.5072550786'
aS'0.5074552187'
aS'0.508155709'
aS'0.5094566196'
aS'0.5096567597'
aS'0.5107575303'
aS'0.5124587211'
aS'0.5134594216'
aS'0.5166616632'
aS'0.5173621535'
aS'0.5206644651'
aS'0.5220654458'
aS'0.5227659362'
aS'0.5229660763'
aS'0.5236665666'
aS'0.5238667067'
aS'0.5246672671'
aS'0.5257680376'
aS'0.5258681077'
aS'0.526468528'
aS'0.5266686681'
aS'0.5267687381'
aS'0.5281697188'
aS'0.5289702792'
aS'0.5290703492'
aS'0.5304713299'
aS'0.53067147'
aS'0.5320724507'
aS'0.532672871'
aS'0.5361753227'
aS'0.5375763034'
aS'0.5378765136'
aS'0.5382767938'
aS'0.538677074'
aS'0.5420794556'
aS'0.5425798059'
aS'0.5447813469'
aS'0.5450815571'
aS'0.5466826779'
aS'0.5493845692'
aS'0.5507855499'
aS'0.55108576'
aS'0.5511858301'
aS'0.555088562'
aS'0.5556889823'
aS'0.5559891924'
aS'0.5577904533'
aS'0.5579905934'
aS'0.5581907335'
aS'0.5593915741'
aS'0.5600920644'
aS'0.5604923446'
aS'0.5610927649'
aS'0.5643950766'
aS'0.5647953567'
aS'0.5656959872'
aS'0.5674972481'
aS'0.5675973181'
aS'0.5676973882'
aS'0.5690983689'
aS'0.5717001901'
aS'0.5720004003'
aS'0.5731011708'
aS'0.5767036926'
aS'0.5774041829'
aS'0.5777043931'
aS'0.5794055839'
aS'0.5806064245'
aS'0.5820074052'
aS'0.5821074752'
aS'0.5826078255'
aS'0.583608526'
aS'0.5842089463'
aS'0.5845091564'
aS'0.5856099269'
aS'0.5860102071'
aS'0.5870109076'
aS'0.5876113279'
aS'0.5879115381'
aS'0.5881116782'
aS'0.5883118183'
aS'0.5888121685'
aS'0.5904132893'
aS'0.5924146903'
aS'0.5937156009'
aS'0.593915741'
aS'0.5950165116'
aS'0.5953167217'
aS'0.5954167918'
aS'0.596017212'
aS'0.5968177724'
aS'0.5971179826'
aS'0.5978184729'
aS'0.5986190333'
aS'0.599919944'
aS'0.6003202242'
aS'0.6005203643'
aS'0.6011207845'
aS'0.6038226759'
aS'0.6048233764'
aS'0.6053237266'
aS'0.6066246372'
aS'0.6071249875'
aS'0.6111277895'
aS'0.6117282097'
aS'0.6138296808'
aS'0.614229961'
aS'0.614330031'
aS'0.6149304513'
aS'0.6154308016'
aS'0.6170319223'
aS'0.6172320624'
aS'0.6178324827'
aS'0.6195336736'
aS'0.6200340238'
aS'0.6201340939'
aS'0.620334234'
aS'0.6214350045'
aS'0.6237366156'
aS'0.6250375263'
aS'0.6257380166'
aS'0.6272390673'
aS'0.628539978'
aS'0.6292404683'
aS'0.6328429901'
aS'0.6331432002'
aS'0.6345441809'
aS'0.6350445312'
aS'0.6365455819'
aS'0.6392474732'
aS'0.6417492245'
aS'0.6418492945'
aS'0.6433503452'
aS'0.6434504153'
aS'0.6450515361'
aS'0.6459521665'
aS'0.646852797'
aS'0.6481537076'
aS'0.6494546182'
aS'0.6497548284'
aS'0.6527569299'
aS'0.65315721'
aS'0.6538577004'
aS'0.6539577704'
aS'0.655058541'
aS'0.6559591714'
aS'0.6563594516'
aS'0.6565595917'
aS'0.6572600821'
aS'0.6587611328'
aS'0.6603622536'
aS'0.6610627439'
aS'0.6647653357'
aS'0.665265686'
aS'0.6667667367'
aS'0.6678675073'
aS'0.6680676474'
aS'0.6686680676'
aS'0.6697688382'
aS'0.6730711498'
aS'0.67347143'
aS'0.6736715701'
aS'0.6743720604'
aS'0.677574302'
aS'0.6778745122'
aS'0.679575703'
aS'0.6799759832'
aS'0.6808766136'
aS'0.6813769639'
aS'0.681577104'
aS'0.6819773842'
aS'0.6826778745'
aS'0.6844791354'
aS'0.6852796958'
aS'0.6867807465'
aS'0.6868808166'
aS'0.6883818673'
aS'0.6884819374'
aS'0.6890823577'
aS'0.6891824277'
aS'0.6909836886'
aS'0.6911838287'
aS'0.6912838987'
aS'0.6924847393'
aS'0.6931852297'
aS'0.6933853698'
aS'0.6935855099'
aS'0.6954868408'
aS'0.6964875413'
aS'0.6973881717'
aS'0.6989892925'
aS'0.7004903432'
aS'0.7016911838'
aS'0.7018913239'
aS'0.7025918143'
aS'0.7037926549'
aS'0.704092865'
aS'0.7044931452'
aS'0.7064945462'
aS'0.7068948264'
aS'0.7069948964'
aS'0.7071950365'
aS'0.7077954568'
aS'0.7083958771'
aS'0.7103972781'
aS'0.7111978385'
aS'0.7113979786'
aS'0.7114980486'
aS'0.7117982588'
aS'0.7131992395'
aS'0.71419994'
aS'0.7152006404'
aS'0.7154007805'
aS'0.7157009907'
aS'0.7161012709'
aS'0.7168017612'
aS'0.7172020414'
aS'0.7194035825'
aS'0.7203042129'
aS'0.7210047033'
aS'0.7213049134'
aS'0.7215050535'
aS'0.7227058941'
aS'0.7235064545'
aS'0.7237065946'
aS'0.7248073652'
aS'0.7249074352'
aS'0.7255078555'
aS'0.7263084159'
aS'0.726608626'
aS'0.7342139498'
aS'0.7345141599'
aS'0.7361152807'
aS'0.7371159812'
aS'0.7381166817'
aS'0.7384168918'
aS'0.738717102'
aS'0.7411187831'
aS'0.7420194136'
aS'0.742920044'
aS'0.7435204643'
aS'0.7441208846'
aS'0.7453217252'
aS'0.7460222156'
aS'0.7475232663'
aS'0.7480236165'
aS'0.7492244571'
aS'0.7495246673'
aS'0.753127189'
aS'0.7540278195'
aS'0.7549284499'
aS'0.7559291504'
aS'0.757230061'
aS'0.7575302712'
aS'0.7577304113'
aS'0.7578304813'
aS'0.7607325128'
aS'0.761232863'
aS'0.7624337036'
aS'0.7645351746'
aS'0.7657360152'
aS'0.7663364355'
aS'0.7664365056'
aS'0.7666366457'
aS'0.7683378365'
aS'0.7686380466'
aS'0.7687381167'
aS'0.7711397979'
aS'0.7722405684'
aS'0.7727409186'
aS'0.7728409887'
aS'0.7736415491'
aS'0.7750425298'
aS'0.7765435805'
aS'0.7780446312'
aS'0.7798458921'
aS'0.7810467327'
aS'0.781547083'
aS'0.7824477134'
aS'0.7834484139'
aS'0.7853497448'
aS'0.7873511458'
aS'0.7886520564'
aS'0.7916541579'
aS'0.7919543681'
aS'0.7941559091'
aS'0.7942559792'
aS'0.7983588512'
aS'0.7986590613'
aS'0.7995596918'
aS'0.7997598319'
aS'0.8012608826'
aS'0.801961373'
aS'0.8030621435'
aS'0.8035624937'
aS'0.8062643851'
aS'0.8068648054'
aS'0.8076653658'
aS'0.8092664865'
aS'0.8094666266'
aS'0.8095666967'
aS'0.8097668368'
aS'0.8099669769'
aS'0.810167117'
aS'0.8107675373'
aS'0.8136695687'
aS'0.814370059'
aS'0.8169718803'
aS'0.8175723006'
aS'0.8180726509'
aS'0.8191734214'
aS'0.8195737016'
aS'0.820474332'
aS'0.8220754528'
aS'0.8253777644'
aS'0.8261783248'
aS'0.8276793756'
aS'0.8303812669'
aS'0.8304813369'
aS'0.830581407'
aS'0.8308816171'
aS'0.8314820374'
aS'0.832582808'
aS'0.8329830882'
aS'0.8339837887'
aS'0.8357850495'
aS'0.8379865906'
aS'0.8385870109'
aS'0.8401881317'
aS'0.8409886921'
aS'0.8411888322'
aS'0.8423896728'
aS'0.8429900931'
aS'0.8447913539'
aS'0.8452917042'
aS'0.8453917742'
aS'0.8459921945'
aS'0.8472931052'
aS'0.8490943661'
aS'0.8491944361'
aS'0.8492945062'
aS'0.8498949264'
aS'0.8499949965'
aS'0.8513959772'
aS'0.8522966076'
aS'0.8525968178'
aS'0.855198639'
aS'0.8555989192'
aS'0.8573001101'
aS'0.8583008106'
aS'0.8594015811'
aS'0.8599019314'
aS'0.8606024217'
aS'0.8621034724'
aS'0.8642049435'
aS'0.8651055739'
aS'0.8659061343'
aS'0.8669068348'
aS'0.8671069749'
aS'0.8672070449'
aS'0.8675072551'
aS'0.8678074652'
aS'0.8691083759'
aS'0.8710097068'
aS'0.8713099169'
aS'0.871510057'
aS'0.8717101971'
aS'0.8722105474'
aS'0.8724106875'
aS'0.8726108276'
aS'0.8739117382'
aS'0.8757129991'
aS'0.8803162214'
aS'0.8804162914'
aS'0.881717202'
aS'0.8822175523'
aS'0.8827179025'
aS'0.8858200741'
aS'0.8886220354'
aS'0.8910237166'
aS'0.8932252577'
aS'0.8942259582'
aS'0.8974281997'
aS'0.900030021'
aS'0.9003302312'
aS'0.9019313519'
aS'0.902031422'
aS'0.9022315621'
aS'0.9034324027'
aS'0.9045331732'
aS'0.9046332433'
aS'0.9053337336'
aS'0.9055338737'
aS'0.9058340839'
aS'0.9063344341'
aS'0.9073351346'
aS'0.9103372361'
aS'0.9104373061'
aS'0.9105373762'
aS'0.9119383568'
aS'0.9121384969'
aS'0.9147403182'
aS'0.9153407385'
aS'0.9170419294'
aS'0.920444311'
aS'0.9211448014'
aS'0.9212448714'
aS'0.9214450115'
aS'0.9223456419'
aS'0.9229460622'
aS'0.9253477434'
aS'0.926448514'
aS'0.9277494246'
aS'0.9280496347'
aS'0.9288501951'
aS'0.9300510357'
aS'0.9304513159'
aS'0.9318522966'
aS'0.9328529971'
aS'0.9329530671'
aS'0.9330531372'
aS'0.9333533473'
aS'0.9351546082'
aS'0.9370559392'
aS'0.9398579005'
aS'0.9402581807'
aS'0.9414590213'
aS'0.9415590914'
aS'0.9425597919'
aS'0.9437606324'
aS'0.9452616832'
aS'0.9453617532'
aS'0.9466626639'
aS'0.9540678475'
aS'0.9561693185'
aS'0.957069949'
aS'0.9578705094'
aS'0.9584709297'
aS'0.9587711398'
aS'0.9589712799'
aS'0.95917142'
aS'0.9613729611'
aS'0.9614730311'
aS'0.9628740118'
aS'0.9630741519'
aS'0.9635745022'
aS'0.965275693'
aS'0.9654758331'
aS'0.9659761833'
aS'0.967277094'
aS'0.9676773742'
aS'0.9689782848'
aS'0.9712798959'
aS'0.9744821375'
aS'0.9745822075'
aS'0.9750825578'
aS'0.9766836786'
aS'0.9789852897'
aS'0.9792854998'
aS'0.9802862003'
aS'0.9804863404'
aS'0.9808866206'
aS'0.9826878815'
aS'0.9832883018'
aS'0.9839887922'
aS'0.9853897728'
aS'0.9865906134'
aS'0.9870909637'
aS'0.9890923647'
aS'0.991894326'
aS'0.9929950966'
aS'0.9970979686'
aS'0.9975983188'
aS'0.9992995097'
aS'0.9994996498'
aS'1'
a(dbsS'attributes'
p31
(dp32
sg22
I0
sg23
I-1
stRp33
(dp34
g26
Nsbag7
(g8
(dp35
g10
Nsg11
I0
sS'name'
p36
S'Goal Arrival Delay Norm'
p37
sg14
I1
sg15
Nsg16
I0
sg17
g18
(tRp38
S'0.0733690714'
aS'0.2073586338'
aS'0.2715388423'
aS'0.2734972937'
aS'0.3222931813'
aS'0.3638179635'
aS'0.4152612007'
aS'0.4180695034'
aS'0.4230329461'
aS'0.4861715328'
aS'0.5235149237'
aS'0.5656046095'
aS'0.5706579533'
aS'0.8819918762'
aS'0.8841642702'
aS'0.9123642137'
aS'0.9870497539'
aS'0'
aS'0.0020049399'
aS'0.0032144229'
aS'0.0035169316'
aS'0.0040031688'
aS'0.0040956039'
aS'0.0053249672'
aS'0.0144317902'
aS'0.0151665588'
aS'0.015534101'
aS'0.017338712'
aS'0.0353294322'
aS'0.0393527839'
aS'0.0394080524'
aS'0.0422048424'
aS'0.0438808535'
aS'0.0441547611'
aS'0.045559596'
aS'0.0460505268'
aS'0.0464441747'
aS'0.0467381209'
aS'0.0476586867'
aS'0.0483132078'
aS'0.0486191097'
aS'0.0505523474'
aS'0.051345871'
aS'0.0529719993'
aS'0.0544125442'
aS'0.0546546473'
aS'0.0554973807'
aS'0.055648212'
aS'0.0558134372'
aS'0.0572608516'
aS'0.0606273071'
aS'0.0607670622'
aS'0.0618757865'
aS'0.0655873498'
aS'0.068152972'
aS'0.0684086698'
aS'0.0718335904'
aS'0.0727073188'
aS'0.0733312537'
aS'0.0734854874'
aS'0.0735376005'
aS'0.0764520403'
aS'0.0765700735'
aS'0.0787303366'
aS'0.0800711348'
aS'0.0801904215'
aS'0.083388139'
aS'0.0848308274'
aS'0.0851825723'
aS'0.0862968193'
aS'0.0887842781'
aS'0.0891787161'
aS'0.0917337662'
aS'0.0917534708'
aS'0.0945657979'
aS'0.0974814573'
aS'0.0980120496'
aS'0.0980856901'
aS'0.098708732'
aS'0.1020912286'
aS'0.1024612666'
aS'0.1025037875'
aS'0.1033093503'
aS'0.1072268812'
aS'0.1093117991'
aS'0.1099407804'
aS'0.1105431035'
aS'0.1111412509'
aS'0.1111841243'
aS'0.1123152416'
aS'0.11343716'
aS'0.1158859483'
aS'0.1163863268'
aS'0.1171266958'
aS'0.1172267906'
aS'0.117302981'
aS'0.1174258314'
aS'0.1178314009'
aS'0.1193372817'
aS'0.1209155254'
aS'0.1212757427'
aS'0.1242129422'
aS'0.1256101277'
aS'0.1256211631'
aS'0.1259345454'
aS'0.127042296'
aS'0.1271021056'
aS'0.1272748595'
aS'0.1274478673'
aS'0.1307085906'
aS'0.1319809785'
aS'0.133871808'
aS'0.1348362066'
aS'0.1362446788'
aS'0.1366893026'
aS'0.1386455162'
aS'0.1400102601'
aS'0.1404183078'
aS'0.1406133064'
aS'0.1408408531'
aS'0.1409563103'
aS'0.143034142'
aS'0.1435818849'
aS'0.143962751'
aS'0.1440299467'
aS'0.1442549898'
aS'0.1462649193'
aS'0.1468086843'
aS'0.146971251'
aS'0.1510822167'
aS'0.1516416962'
aS'0.1516564712'
aS'0.1528462438'
aS'0.1532713797'
aS'0.1544854892'
aS'0.1547425347'
aS'0.1561084341'
aS'0.156452731'
aS'0.1578563187'
aS'0.1591526529'
aS'0.1593139311'
aS'0.1594154541'
aS'0.159572339'
aS'0.159802081'
aS'0.1611174066'
aS'0.1611520281'
aS'0.1652149185'
aS'0.1656155496'
aS'0.1661811438'
aS'0.1663139685'
aS'0.1689336794'
aS'0.1698858337'
aS'0.1706119614'
aS'0.1717065647'
aS'0.1734900596'
aS'0.1754880568'
aS'0.1768785018'
aS'0.17719954'
aS'0.1793160457'
aS'0.1798704503'
aS'0.1804838583'
aS'0.1812547415'
aS'0.184457708'
aS'0.1861768212'
aS'0.1862382278'
aS'0.1877157142'
aS'0.1901759725'
aS'0.19034877'
aS'0.1921972057'
aS'0.1931222109'
aS'0.1932062853'
aS'0.1936437615'
aS'0.1943829826'
aS'0.1949343762'
aS'0.1970784036'
aS'0.1971363959'
aS'0.1973475957'
aS'0.1993007535'
aS'0.199584679'
aS'0.1998181097'
aS'0.2030461651'
aS'0.2050026073'
aS'0.2055388208'
aS'0.2061101374'
aS'0.2064464196'
aS'0.2088159125'
aS'0.2102043105'
aS'0.2141967872'
aS'0.2162364895'
aS'0.2164720247'
aS'0.216612978'
aS'0.2185995245'
aS'0.2188867015'
aS'0.2192040449'
aS'0.2226467102'
aS'0.2226912045'
aS'0.2291072746'
aS'0.2303709012'
aS'0.2309386208'
aS'0.2343465822'
aS'0.2347331468'
aS'0.2365019708'
aS'0.2373144532'
aS'0.2376739698'
aS'0.2378713003'
aS'0.2383369202'
aS'0.2383736597'
aS'0.239273245'
aS'0.2406790242'
aS'0.2413593299'
aS'0.2417940006'
aS'0.2422656388'
aS'0.2428675365'
aS'0.2431271719'
aS'0.2470572637'
aS'0.2486696132'
aS'0.2505205222'
aS'0.2513098315'
aS'0.2513246865'
aS'0.2516169448'
aS'0.2526345665'
aS'0.2534340178'
aS'0.255407674'
aS'0.2558205835'
aS'0.2561914786'
aS'0.2563394625'
aS'0.2583623867'
aS'0.2610628083'
aS'0.2610709781'
aS'0.2610801516'
aS'0.2613761299'
aS'0.2619305096'
aS'0.262119787'
aS'0.2624025158'
aS'0.2634616132'
aS'0.2643611784'
aS'0.2643851858'
aS'0.2646271933'
aS'0.2655231935'
aS'0.2688434368'
aS'0.2693024247'
aS'0.272626536'
aS'0.2727221711'
aS'0.2768101095'
aS'0.2772366989'
aS'0.2787284646'
aS'0.2807228349'
aS'0.2817497361'
aS'0.2824242547'
aS'0.2831251954'
aS'0.2843960714'
aS'0.2874377138'
aS'0.2879465432'
aS'0.2880467998'
aS'0.2889905677'
aS'0.2899511308'
aS'0.291543093'
aS'0.2915996579'
aS'0.2932920928'
aS'0.2947802443'
aS'0.2954003559'
aS'0.2958086424'
aS'0.2982740439'
aS'0.2994082513'
aS'0.2996515981'
aS'0.3014873364'
aS'0.3017185233'
aS'0.3036093117'
aS'0.3052797555'
aS'0.3058881466'
aS'0.3060358037'
aS'0.3062926163'
aS'0.3069837493'
aS'0.3081386029'
aS'0.3088865902'
aS'0.3094680512'
aS'0.3095858149'
aS'0.3126402486'
aS'0.3137990128'
aS'0.3145121604'
aS'0.3148222697'
aS'0.3158039771'
aS'0.3165673925'
aS'0.3213875748'
aS'0.3221136894'
aS'0.3222395355'
aS'0.3225025707'
aS'0.3259354734'
aS'0.3284342395'
aS'0.3288390966'
aS'0.3290229537'
aS'0.3326484598'
aS'0.332898584'
aS'0.333939347'
aS'0.3345627209'
aS'0.3364015127'
aS'0.3380624326'
aS'0.3386437897'
aS'0.3396734377'
aS'0.3398233507'
aS'0.3398880941'
aS'0.3424695264'
aS'0.3424863695'
aS'0.343745802'
aS'0.3444872434'
aS'0.3461215181'
aS'0.3462821709'
aS'0.3475156295'
aS'0.3479520817'
aS'0.3486093021'
aS'0.3487223213'
aS'0.3489098806'
aS'0.3490940095'
aS'0.3491216896'
aS'0.3492630488'
aS'0.3501289818'
aS'0.3520046805'
aS'0.3528169447'
aS'0.3532454269'
aS'0.3564300706'
aS'0.356844628'
aS'0.3575712264'
aS'0.3579678354'
aS'0.3599169659'
aS'0.3609051466'
aS'0.3634803795'
aS'0.3639120492'
aS'0.364799592'
aS'0.3685660546'
aS'0.3697080128'
aS'0.3705619316'
aS'0.3752773128'
aS'0.3768562885'
aS'0.3780475555'
aS'0.378378401'
aS'0.3785720336'
aS'0.3785816477'
aS'0.3797265745'
aS'0.3799002396'
aS'0.380147524'
aS'0.3804807988'
aS'0.3809243628'
aS'0.3811012883'
aS'0.3814330067'
aS'0.3820931843'
aS'0.3824322048'
aS'0.3826172612'
aS'0.383795477'
aS'0.3838531826'
aS'0.3851241197'
aS'0.3860254954'
aS'0.3871088659'
aS'0.3879921468'
aS'0.3880191887'
aS'0.3888692232'
aS'0.3940514662'
aS'0.3950388793'
aS'0.3955763508'
aS'0.3955891192'
aS'0.3958090563'
aS'0.3960842741'
aS'0.3962241345'
aS'0.3992176418'
aS'0.3999559045'
aS'0.3999798792'
aS'0.40047227'
aS'0.4008775836'
aS'0.4018698172'
aS'0.4029675756'
aS'0.4057897673'
aS'0.4079584994'
aS'0.4089587546'
aS'0.4097996186'
aS'0.409891388'
aS'0.4119773925'
aS'0.4126376161'
aS'0.4129111432'
aS'0.4129669957'
aS'0.4133207475'
aS'0.4133294227'
aS'0.4138388832'
aS'0.4153065181'
aS'0.4160881561'
aS'0.4166081892'
aS'0.4178613122'
aS'0.4191557173'
aS'0.4200813063'
aS'0.4225903417'
aS'0.4229188533'
aS'0.423661546'
aS'0.4243558067'
aS'0.4252962182'
aS'0.4262231259'
aS'0.4305224605'
aS'0.431285773'
aS'0.4318654719'
aS'0.43215248'
aS'0.4349927616'
aS'0.435291455'
aS'0.4359725957'
aS'0.4363937193'
aS'0.4368180205'
aS'0.4376440898'
aS'0.437721202'
aS'0.443459976'
aS'0.4435646648'
aS'0.4494749866'
aS'0.4497372213'
aS'0.4502517755'
aS'0.4510568684'
aS'0.4514745899'
aS'0.4518534926'
aS'0.4535350306'
aS'0.4535696214'
aS'0.4553348885'
aS'0.4576187431'
aS'0.4586776756'
aS'0.4587156619'
aS'0.4589306713'
aS'0.4592375549'
aS'0.4601532389'
aS'0.4605924919'
aS'0.4611882921'
aS'0.4628346854'
aS'0.4638618771'
aS'0.466490232'
aS'0.4666572011'
aS'0.4676345579'
aS'0.4679237616'
aS'0.4679765079'
aS'0.4682202715'
aS'0.4682934409'
aS'0.4688176415'
aS'0.468906628'
aS'0.4689937091'
aS'0.4706209322'
aS'0.4710872991'
aS'0.4722125942'
aS'0.4725819966'
aS'0.4728339105'
aS'0.4728479458'
aS'0.4737702708'
aS'0.4742239931'
aS'0.4747488636'
aS'0.4750486442'
aS'0.4751301807'
aS'0.475134838'
aS'0.4751609693'
aS'0.4764160036'
aS'0.4780381381'
aS'0.4786106128'
aS'0.4788131143'
aS'0.4793609644'
aS'0.4797595128'
aS'0.4797786085'
aS'0.4804080908'
aS'0.4804753696'
aS'0.48056996'
aS'0.4814963998'
aS'0.4817501168'
aS'0.4821097268'
aS'0.4836283481'
aS'0.4836626683'
aS'0.4839485399'
aS'0.4851967558'
aS'0.4856687207'
aS'0.4859869709'
aS'0.4861593759'
aS'0.4870695471'
aS'0.488136846'
aS'0.4884124782'
aS'0.4888172275'
aS'0.4902444351'
aS'0.4903384877'
aS'0.490502827'
aS'0.491455334'
aS'0.4927581892'
aS'0.4928248278'
aS'0.4928266872'
aS'0.4930995078'
aS'0.4931208764'
aS'0.4939563325'
aS'0.494361425'
aS'0.4948032709'
aS'0.495177326'
aS'0.4960284131'
aS'0.4961372727'
aS'0.4961809578'
aS'0.4962945234'
aS'0.4964923406'
aS'0.4971892337'
aS'0.4991796612'
aS'0.5003971027'
aS'0.5014348872'
aS'0.501829318'
aS'0.5020485169'
aS'0.5027185'
aS'0.5027250164'
aS'0.5057105174'
aS'0.5066980927'
aS'0.5105408282'
aS'0.5111841063'
aS'0.5115656579'
aS'0.5116278039'
aS'0.5118364756'
aS'0.5121090784'
aS'0.512447776'
aS'0.5126346203'
aS'0.5131111656'
aS'0.5134398119'
aS'0.5136846462'
aS'0.5146005045'
aS'0.5154883664'
aS'0.5166502357'
aS'0.5169267286'
aS'0.5174565521'
aS'0.5182393195'
aS'0.5189321756'
aS'0.5189327804'
aS'0.5208170389'
aS'0.5213323143'
aS'0.5216696691'
aS'0.5234489038'
aS'0.5245086584'
aS'0.5261419643'
aS'0.5264590915'
aS'0.5277286008'
aS'0.5280458665'
aS'0.5285145583'
aS'0.5290287109'
aS'0.5292063947'
aS'0.5302253024'
aS'0.5302497632'
aS'0.5302546315'
aS'0.5302689909'
aS'0.5303445018'
aS'0.5320432729'
aS'0.532400182'
aS'0.5340643204'
aS'0.534330941'
aS'0.5343612435'
aS'0.5348084014'
aS'0.5351117388'
aS'0.5365301389'
aS'0.5368039549'
aS'0.5368574135'
aS'0.537706384'
aS'0.5377474184'
aS'0.5387054891'
aS'0.5402869449'
aS'0.5407332876'
aS'0.5415364714'
aS'0.5416005143'
aS'0.5430236246'
aS'0.5442228276'
aS'0.5443165438'
aS'0.5450645201'
aS'0.5455442623'
aS'0.5455707267'
aS'0.5462387262'
aS'0.5475525595'
aS'0.5493207716'
aS'0.5512959932'
aS'0.5529262642'
aS'0.5537724525'
aS'0.5551287291'
aS'0.5562751252'
aS'0.5588346788'
aS'0.5597958207'
aS'0.5605485182'
aS'0.5615851432'
aS'0.5621347766'
aS'0.5625542898'
aS'0.5632309234'
aS'0.56413762'
aS'0.5662760674'
aS'0.5678070649'
aS'0.5695160448'
aS'0.5695571654'
aS'0.569937183'
aS'0.571110249'
aS'0.5729257328'
aS'0.5734277245'
aS'0.5740898749'
aS'0.5745911981'
aS'0.575374798'
aS'0.5770171354'
aS'0.577442644'
aS'0.5783348669'
aS'0.5793082385'
aS'0.5793096713'
aS'0.5794632097'
aS'0.5801769904'
aS'0.5836333094'
aS'0.5846544296'
aS'0.5848647738'
aS'0.5853970566'
aS'0.5856339633'
aS'0.5857139203'
aS'0.5862702129'
aS'0.5871902491'
aS'0.587407636'
aS'0.5886767656'
aS'0.5891046988'
aS'0.5914562518'
aS'0.5924506465'
aS'0.5953079876'
aS'0.5963307236'
aS'0.5971196583'
aS'0.5989830795'
aS'0.6004711752'
aS'0.6036996927'
aS'0.6044435258'
aS'0.6066482296'
aS'0.6075503026'
aS'0.6086009729'
aS'0.609109243'
aS'0.6100092125'
aS'0.6115920853'
aS'0.6125860446'
aS'0.6140911029'
aS'0.6146930778'
aS'0.6153608895'
aS'0.6171285029'
aS'0.6171992824'
aS'0.6179602276'
aS'0.6181837344'
aS'0.6191560602'
aS'0.6211765857'
aS'0.6216678386'
aS'0.6221211608'
aS'0.6221942973'
aS'0.6245023518'
aS'0.6245979416'
aS'0.6252727334'
aS'0.6264133539'
aS'0.6277211571'
aS'0.6277437872'
aS'0.631930296'
aS'0.632532728'
aS'0.6337860403'
aS'0.6339549648'
aS'0.6357108365'
aS'0.6361909675'
aS'0.6366087647'
aS'0.6371074633'
aS'0.6384530929'
aS'0.641104173'
aS'0.6422249032'
aS'0.6422764008'
aS'0.6426415999'
aS'0.6436117543'
aS'0.6442740585'
aS'0.6449142134'
aS'0.6449465044'
aS'0.6456956624'
aS'0.6468433086'
aS'0.646947626'
aS'0.6485017322'
aS'0.6489999261'
aS'0.6490878498'
aS'0.6500837682'
aS'0.6523461297'
aS'0.6537659884'
aS'0.6540722694'
aS'0.6557585869'
aS'0.6558853246'
aS'0.6559470266'
aS'0.6577932298'
aS'0.6582421102'
aS'0.6589837951'
aS'0.6590668745'
aS'0.6614712678'
aS'0.6616714277'
aS'0.6619120001'
aS'0.6620004957'
aS'0.6621563955'
aS'0.662867879'
aS'0.6666542028'
aS'0.6669913279'
aS'0.6688483118'
aS'0.6710174457'
aS'0.6725849199'
aS'0.6740150384'
aS'0.674756939'
aS'0.6760614679'
aS'0.6774756833'
aS'0.6780288844'
aS'0.6788462281'
aS'0.680558632'
aS'0.6808415677'
aS'0.6808904688'
aS'0.6818773698'
aS'0.6861678693'
aS'0.686416172'
aS'0.6874966144'
aS'0.6878045647'
aS'0.6881351519'
aS'0.688163319'
aS'0.6891200455'
aS'0.6892714087'
aS'0.6895456014'
aS'0.6902292097'
aS'0.6912369681'
aS'0.6924165819'
aS'0.6929990359'
aS'0.6930454615'
aS'0.6946508708'
aS'0.6949106732'
aS'0.6949381322'
aS'0.6952153898'
aS'0.6957409162'
aS'0.6982221693'
aS'0.6990534932'
aS'0.7001875244'
aS'0.7027285924'
aS'0.7035969938'
aS'0.7041505333'
aS'0.7046241241'
aS'0.7046892768'
aS'0.7050905778'
aS'0.7087904792'
aS'0.709106039'
aS'0.7104160334'
aS'0.7114903236'
aS'0.7116107417'
aS'0.7122255989'
aS'0.7122678689'
aS'0.7128048114'
aS'0.714218708'
aS'0.7145282415'
aS'0.7170414539'
aS'0.7173213326'
aS'0.7175541785'
aS'0.7181678501'
aS'0.7183232865'
aS'0.7183905464'
aS'0.7191113267'
aS'0.7191819584'
aS'0.7197208898'
aS'0.7211894457'
aS'0.7220384452'
aS'0.7222165115'
aS'0.7227151827'
aS'0.7233490052'
aS'0.7239974606'
aS'0.7251776472'
aS'0.7257278754'
aS'0.7271566023'
aS'0.7275171804'
aS'0.7278572609'
aS'0.7283383065'
aS'0.7288312013'
aS'0.7304720679'
aS'0.7309535122'
aS'0.7341812562'
aS'0.7343014308'
aS'0.7345308997'
aS'0.734774003'
aS'0.7376500437'
aS'0.7399335691'
aS'0.7403355291'
aS'0.7413257073'
aS'0.7420401498'
aS'0.7425707071'
aS'0.7437642409'
aS'0.7455424642'
aS'0.7463387251'
aS'0.7476333743'
aS'0.748184702'
aS'0.7482624572'
aS'0.751267101'
aS'0.7520444928'
aS'0.7527121101'
aS'0.7554349795'
aS'0.7558010074'
aS'0.7563104223'
aS'0.7566252758'
aS'0.7566337279'
aS'0.7585469683'
aS'0.7585753492'
aS'0.7609199028'
aS'0.761015084'
aS'0.7620334606'
aS'0.7628081996'
aS'0.7631580142'
aS'0.7643032481'
aS'0.7651085962'
aS'0.7656913194'
aS'0.765707508'
aS'0.7664466026'
aS'0.7667759495'
aS'0.767006722'
aS'0.7677601195'
aS'0.7682017815'
aS'0.7701657814'
aS'0.7707993068'
aS'0.771465263'
aS'0.7715504892'
aS'0.7718623152'
aS'0.7719939569'
aS'0.7742050791'
aS'0.7747014396'
aS'0.7754099109'
aS'0.7769413411'
aS'0.7792920906'
aS'0.7797017023'
aS'0.7800261539'
aS'0.7814451217'
aS'0.7815282463'
aS'0.7816080932'
aS'0.7835727873'
aS'0.7838552745'
aS'0.7854724598'
aS'0.7873654066'
aS'0.7875920085'
aS'0.7891845118'
aS'0.7924692999'
aS'0.7939150185'
aS'0.7944000799'
aS'0.7949963145'
aS'0.7962381818'
aS'0.7985272067'
aS'0.799363358'
aS'0.8002890624'
aS'0.8003979858'
aS'0.8007605021'
aS'0.8014099095'
aS'0.8035470421'
aS'0.8052941031'
aS'0.805355939'
aS'0.8054827907'
aS'0.8054912516'
aS'0.8059939308'
aS'0.8080151642'
aS'0.8080980413'
aS'0.809437202'
aS'0.811742148'
aS'0.8133083824'
aS'0.8139225534'
aS'0.8154792863'
aS'0.8169252128'
aS'0.8175277961'
aS'0.8179328523'
aS'0.8180070218'
aS'0.8196221736'
aS'0.8202787272'
aS'0.8212530768'
aS'0.8220347525'
aS'0.822984492'
aS'0.8231658337'
aS'0.824303874'
aS'0.8248604986'
aS'0.8284207916'
aS'0.8291997405'
aS'0.8294418258'
aS'0.830227772'
aS'0.8304671867'
aS'0.8307771687'
aS'0.831623026'
aS'0.832602537'
aS'0.8333428419'
aS'0.8337935243'
aS'0.8342948499'
aS'0.836717591'
aS'0.8387605678'
aS'0.8414261642'
aS'0.8423967869'
aS'0.8426197179'
aS'0.8432003783'
aS'0.8445442305'
aS'0.8457896437'
aS'0.8483637831'
aS'0.8512601618'
aS'0.851857861'
aS'0.8523206248'
aS'0.8543183316'
aS'0.8545832404'
aS'0.8561143287'
aS'0.8589821225'
aS'0.8594252204'
aS'0.8596818138'
aS'0.8605449313'
aS'0.861718833'
aS'0.8624026481'
aS'0.8639079421'
aS'0.8643081821'
aS'0.8644917729'
aS'0.8646696007'
aS'0.8653531225'
aS'0.8661023363'
aS'0.8671190337'
aS'0.8674023183'
aS'0.8681663354'
aS'0.8695593363'
aS'0.8700626304'
aS'0.870435101'
aS'0.8743496403'
aS'0.8746759854'
aS'0.8756497506'
aS'0.8767460267'
aS'0.8784413795'
aS'0.8784716754'
aS'0.8792113536'
aS'0.8803523223'
aS'0.8806043692'
aS'0.8826148352'
aS'0.885158385'
aS'0.888099751'
aS'0.8881348186'
aS'0.8889112798'
aS'0.8893343052'
aS'0.8902640528'
aS'0.8918381996'
aS'0.8919659014'
aS'0.8923280902'
aS'0.8929862653'
aS'0.8934736262'
aS'0.8939580024'
aS'0.8940290928'
aS'0.8953049717'
aS'0.8953368023'
aS'0.8954890311'
aS'0.8969666827'
aS'0.8975967511'
aS'0.9031161018'
aS'0.903267305'
aS'0.9034358885'
aS'0.9054167861'
aS'0.9068579846'
aS'0.9081841089'
aS'0.9099414759'
aS'0.91147742'
aS'0.9117778662'
aS'0.912106581'
aS'0.9124283044'
aS'0.9161767038'
aS'0.9166186309'
aS'0.9180963189'
aS'0.9186074156'
aS'0.9194346085'
aS'0.9207007518'
aS'0.9217429809'
aS'0.9223478736'
aS'0.9227247741'
aS'0.9240737601'
aS'0.9242884579'
aS'0.9245313796'
aS'0.9253662252'
aS'0.925648459'
aS'0.9264606125'
aS'0.9284577885'
aS'0.9288812189'
aS'0.9296425868'
aS'0.9297133944'
aS'0.9305249548'
aS'0.9339394079'
aS'0.9366531174'
aS'0.9378170955'
aS'0.9404357506'
aS'0.9414300495'
aS'0.9421914391'
aS'0.9425434377'
aS'0.942708859'
aS'0.9444573992'
aS'0.9451236016'
aS'0.9454793277'
aS'0.9481093969'
aS'0.9497477271'
aS'0.949989006'
aS'0.9526052986'
aS'0.9529943136'
aS'0.9533633819'
aS'0.9536204149'
aS'0.9578342335'
aS'0.9586858505'
aS'0.9636481033'
aS'0.9655315124'
aS'0.9681741062'
aS'0.9711944494'
aS'0.9723579892'
aS'0.972474152'
aS'0.9787635423'
aS'0.9787913532'
aS'0.9811902494'
aS'0.9828467274'
aS'0.9830943756'
aS'0.9836094685'
aS'0.9838104557'
aS'0.9839214071'
aS'0.984976301'
aS'0.9853605894'
aS'0.9881681592'
aS'0.9897230617'
aS'0.994757032'
aS'0.9974362595'
aS'0.9982055667'
aS'0.9985607059'
aS'1'
a(dbsS'attributes'
p39
(dp40
sg22
I0
sg23
I-1
stRp41
(dp42
g26
Nsba(dbg7
(g8
(dp43
g10
Nsg11
I0
sS'name'
p44
S'T_50'
p45
sg14
I1
sg15
Nsg16
I0
sg17
g18
(tRp46
S'FALSE'
aS'TRUE'
a(dbsS'attributes'
p47
(dp48
sg22
I0
sg23
I-1
stRp49
(dp50
g26
Nsbg5
(tRp51
(db(dp52
I-7
g7
(g8
(dp53
g10
Nsg11
I0
sS'name'
p54
S'Trust Value Norm'
p55
sg14
I1
sg15
Nsg16
I0
sg17
g18
(tRp56
S'0.2054226717'
aS'0.2548804174'
aS'0.3244907201'
aS'0.3526240017'
aS'0.4406261594'
aS'0.4542351841'
aS'0.4577421418'
aS'0.4996292185'
aS'0.5364121714'
aS'0.5668547948'
aS'0.5673471251'
aS'0.5766674569'
aS'0.6162422652'
aS'0.619328629'
aS'0.6247193898'
aS'0.6833133793'
aS'0.7390214988'
aS'0'
aS'0.0145539268'
aS'0.0415984954'
aS'0.0471996663'
aS'0.0694596334'
aS'0.0787269551'
aS'0.084735276'
aS'0.0960075887'
aS'0.1077959362'
aS'0.108664903'
aS'0.109277182'
aS'0.1121969042'
aS'0.1161837494'
aS'0.1201720206'
aS'0.1243007588'
aS'0.1251621076'
aS'0.1391515811'
aS'0.1429833856'
aS'0.1434251996'
aS'0.1454325958'
aS'0.1515686481'
aS'0.1531825144'
aS'0.1544989299'
aS'0.1545120852'
aS'0.1551200775'
aS'0.1564027616'
aS'0.1604443807'
aS'0.1626219003'
aS'0.1626249239'
aS'0.1629383713'
aS'0.1632184689'
aS'0.163751588'
aS'0.164301025'
aS'0.1649342932'
aS'0.1661390745'
aS'0.1670389776'
aS'0.1802163461'
aS'0.1905070641'
aS'0.1905630366'
aS'0.1930488954'
aS'0.1935392136'
aS'0.1944784693'
aS'0.196874864'
aS'0.1970865217'
aS'0.2034588425'
aS'0.2076091198'
aS'0.2080362632'
aS'0.209166873'
aS'0.2100525944'
aS'0.2103601946'
aS'0.2160253175'
aS'0.2164998102'
aS'0.2187665948'
aS'0.2212000733'
aS'0.2235297574'
aS'0.2251046542'
aS'0.2260673183'
aS'0.2273312901'
aS'0.2275222145'
aS'0.228465318'
aS'0.2305575811'
aS'0.2336077139'
aS'0.2345615829'
aS'0.2351322866'
aS'0.2358063255'
aS'0.2401767458'
aS'0.2409953913'
aS'0.2414636761'
aS'0.2416622981'
aS'0.2418241892'
aS'0.2423277342'
aS'0.2429903978'
aS'0.2437139433'
aS'0.243794809'
aS'0.2485952308'
aS'0.2501856409'
aS'0.2519224772'
aS'0.2521758057'
aS'0.2540126532'
aS'0.254133978'
aS'0.256626206'
aS'0.2572515257'
aS'0.261093892'
aS'0.2615587106'
aS'0.2618504022'
aS'0.2627103231'
aS'0.2644858965'
aS'0.264852953'
aS'0.2649724273'
aS'0.265168969'
aS'0.2655909177'
aS'0.2660394523'
aS'0.2664119336'
aS'0.2666696211'
aS'0.2669020882'
aS'0.2673171663'
aS'0.2674208006'
aS'0.2695051084'
aS'0.2706600114'
aS'0.2706755385'
aS'0.2708425296'
aS'0.2712742832'
aS'0.2713554583'
aS'0.2722387978'
aS'0.2724183814'
aS'0.273714015'
aS'0.2742569152'
aS'0.2751795779'
aS'0.2758969896'
aS'0.2761774852'
aS'0.2782661783'
aS'0.2787233867'
aS'0.2795566585'
aS'0.2814786182'
aS'0.2832220006'
aS'0.28511224'
aS'0.2854618889'
aS'0.2857196303'
aS'0.2874346397'
aS'0.287448313'
aS'0.290997272'
aS'0.292995834'
aS'0.293343071'
aS'0.2940321333'
aS'0.2945647101'
aS'0.2951542106'
aS'0.2956429854'
aS'0.2974948971'
aS'0.2985382128'
aS'0.3010763528'
aS'0.3023382835'
aS'0.3036708626'
aS'0.3038253847'
aS'0.3049665318'
aS'0.3071224155'
aS'0.3075117943'
aS'0.3085078738'
aS'0.309298236'
aS'0.3112999022'
aS'0.3113186277'
aS'0.3115893188'
aS'0.3121298347'
aS'0.3122623018'
aS'0.3122645633'
aS'0.3130215766'
aS'0.3138273099'
aS'0.3139904474'
aS'0.3142110434'
aS'0.3142837802'
aS'0.3166989252'
aS'0.3170396484'
aS'0.3172020714'
aS'0.3176834498'
aS'0.3178966886'
aS'0.3183865588'
aS'0.3190809854'
aS'0.3192091458'
aS'0.319392407'
aS'0.3196743098'
aS'0.3213609699'
aS'0.3217101444'
aS'0.3219245021'
aS'0.3227920482'
aS'0.3239970957'
aS'0.3248686141'
aS'0.3248704308'
aS'0.3254898798'
aS'0.3262640608'
aS'0.3273541357'
aS'0.3274509032'
aS'0.3276854003'
aS'0.3283689285'
aS'0.3288934771'
aS'0.3292196954'
aS'0.3296047655'
aS'0.3326210872'
aS'0.3329885695'
aS'0.3355302996'
aS'0.3364224593'
aS'0.3374125259'
aS'0.3390824146'
aS'0.3393064115'
aS'0.3394690742'
aS'0.3396241656'
aS'0.3400359328'
aS'0.3404966517'
aS'0.3405359477'
aS'0.3408167854'
aS'0.3409810755'
aS'0.3425003454'
aS'0.3432984971'
aS'0.3437301044'
aS'0.344360542'
aS'0.3450417367'
aS'0.345279693'
aS'0.3463160039'
aS'0.3464758261'
aS'0.347373248'
aS'0.3474769049'
aS'0.3478854315'
aS'0.3485851934'
aS'0.3496016995'
aS'0.3513822422'
aS'0.3517219703'
aS'0.3519215359'
aS'0.3525940604'
aS'0.3533197237'
aS'0.3534890271'
aS'0.3535408163'
aS'0.3538801865'
aS'0.3540420241'
aS'0.354333122'
aS'0.3546228834'
aS'0.3550839215'
aS'0.357472209'
aS'0.3581556161'
aS'0.3597272875'
aS'0.3601218177'
aS'0.3605469459'
aS'0.361221418'
aS'0.3625493456'
aS'0.3629646198'
aS'0.3630152889'
aS'0.3633076669'
aS'0.363700045'
aS'0.3639859235'
aS'0.3644001177'
aS'0.3644435926'
aS'0.3676758962'
aS'0.3678495444'
aS'0.3680201171'
aS'0.3697395279'
aS'0.3699999723'
aS'0.3717834891'
aS'0.3720496537'
aS'0.3721227501'
aS'0.3723224469'
aS'0.3727157298'
aS'0.373343567'
aS'0.3738562367'
aS'0.3739529193'
aS'0.3742877215'
aS'0.3747142953'
aS'0.3756622368'
aS'0.3758485925'
aS'0.3759173368'
aS'0.3765533024'
aS'0.3773831545'
aS'0.3782623212'
aS'0.3786696731'
aS'0.3796568359'
aS'0.3807358535'
aS'0.380884829'
aS'0.3820498924'
aS'0.3823335762'
aS'0.3853440864'
aS'0.385414755'
aS'0.3857165683'
aS'0.3861643492'
aS'0.3866668511'
aS'0.3883048713'
aS'0.388557076'
aS'0.3892558525'
aS'0.3896351999'
aS'0.389791548'
aS'0.3901642144'
aS'0.390611108'
aS'0.3909517295'
aS'0.3920006441'
aS'0.3926375713'
aS'0.3930662488'
aS'0.3933030978'
aS'0.3937162555'
aS'0.3956210885'
aS'0.395667196'
aS'0.3957789875'
aS'0.3958369649'
aS'0.3963482541'
aS'0.3991388482'
aS'0.3993770126'
aS'0.400353212'
aS'0.4005904527'
aS'0.4014832595'
aS'0.402262263'
aS'0.4026483981'
aS'0.4028352295'
aS'0.4032628854'
aS'0.4035470647'
aS'0.4044718509'
aS'0.4058984162'
aS'0.4059737781'
aS'0.4068466264'
aS'0.4073315807'
aS'0.408126032'
aS'0.4083323629'
aS'0.4084520862'
aS'0.40989315'
aS'0.4121720917'
aS'0.4127585095'
aS'0.4136831401'
aS'0.4142454237'
aS'0.4145597624'
aS'0.4145694791'
aS'0.4147534787'
aS'0.4148657021'
aS'0.4152908789'
aS'0.4171071053'
aS'0.4185149587'
aS'0.4185935354'
aS'0.4194229677'
aS'0.4201785877'
aS'0.4203713132'
aS'0.4207420198'
aS'0.4208805013'
aS'0.4217537608'
aS'0.4222313055'
aS'0.4226967861'
aS'0.4228475788'
aS'0.4244582075'
aS'0.4253987264'
aS'0.4254082789'
aS'0.4256224151'
aS'0.425762083'
aS'0.4260238414'
aS'0.4267042723'
aS'0.4280883844'
aS'0.4284206275'
aS'0.4299958547'
aS'0.4309013503'
aS'0.4313051015'
aS'0.4315677915'
aS'0.4325167897'
aS'0.4325781604'
aS'0.4328524039'
aS'0.433511199'
aS'0.4339663876'
aS'0.4344080119'
aS'0.4346324338'
aS'0.4352901433'
aS'0.4358603876'
aS'0.4359302579'
aS'0.4369244102'
aS'0.4371579673'
aS'0.4371895682'
aS'0.4372132602'
aS'0.4375317508'
aS'0.4377049147'
aS'0.4381517433'
aS'0.4381619083'
aS'0.438188242'
aS'0.4382860761'
aS'0.4390510259'
aS'0.4393839483'
aS'0.4402045763'
aS'0.4407063128'
aS'0.4409716381'
aS'0.4414875964'
aS'0.4417988874'
aS'0.4427093127'
aS'0.4434217115'
aS'0.4435710905'
aS'0.4435727487'
aS'0.443998883'
aS'0.4444304242'
aS'0.4445338917'
aS'0.4448393055'
aS'0.4458022115'
aS'0.446189122'
aS'0.4462622805'
aS'0.4463142154'
aS'0.4466340143'
aS'0.4470691559'
aS'0.4481226204'
aS'0.4484144823'
aS'0.4487800763'
aS'0.4489239931'
aS'0.4505178642'
aS'0.4508576207'
aS'0.4515473081'
aS'0.4522384714'
aS'0.4523935535'
aS'0.4527264408'
aS'0.4528801477'
aS'0.4528869592'
aS'0.4537977355'
aS'0.4543818756'
aS'0.4553175552'
aS'0.4554092872'
aS'0.4554508078'
aS'0.4555817852'
aS'0.4556132135'
aS'0.4564549967'
aS'0.4565275231'
aS'0.4565527608'
aS'0.4566667122'
aS'0.4568204787'
aS'0.458039965'
aS'0.4583254556'
aS'0.4588593042'
aS'0.4590131587'
aS'0.4609383594'
aS'0.4611170839'
aS'0.4618276642'
aS'0.4625683747'
aS'0.4629120244'
aS'0.4631070048'
aS'0.4646533114'
aS'0.4663668275'
aS'0.4665191094'
aS'0.4674989673'
aS'0.4677888623'
aS'0.4679699887'
aS'0.4689357434'
aS'0.4695057794'
aS'0.4695670882'
aS'0.4700928063'
aS'0.4706835248'
aS'0.4707389983'
aS'0.4708141647'
aS'0.4717380708'
aS'0.4721155517'
aS'0.4723856284'
aS'0.4725556406'
aS'0.4727642891'
aS'0.4736933192'
aS'0.4744317428'
aS'0.474432758'
aS'0.474731335'
aS'0.4748662519'
aS'0.4780677633'
aS'0.4783696904'
aS'0.4785418082'
aS'0.4794918762'
aS'0.4802758128'
aS'0.4807175781'
aS'0.4807206618'
aS'0.4809612955'
aS'0.4817940256'
aS'0.4821704211'
aS'0.4830959322'
aS'0.4831250206'
aS'0.4836744306'
aS'0.4845387828'
aS'0.4848136438'
aS'0.4868956187'
aS'0.487110517'
aS'0.4878207195'
aS'0.4883285685'
aS'0.4885547722'
aS'0.4886667454'
aS'0.4912712272'
aS'0.49132629'
aS'0.4913523856'
aS'0.4916862956'
aS'0.4917284875'
aS'0.49191391'
aS'0.492526071'
aS'0.4935801136'
aS'0.4943271182'
aS'0.4952652772'
aS'0.4960578581'
aS'0.4960906531'
aS'0.4960950272'
aS'0.4973085552'
aS'0.4975684099'
aS'0.4977427696'
aS'0.4978223318'
aS'0.4980984992'
aS'0.4988244667'
aS'0.4996714896'
aS'0.5017115802'
aS'0.5021944245'
aS'0.5022625164'
aS'0.5034596931'
aS'0.5043702086'
aS'0.5046158846'
aS'0.5054089934'
aS'0.5057550584'
aS'0.5059957269'
aS'0.5080280414'
aS'0.5090037969'
aS'0.5090492214'
aS'0.5091957273'
aS'0.5093144019'
aS'0.5099538592'
aS'0.5107467872'
aS'0.5115515814'
aS'0.5117806122'
aS'0.5120071733'
aS'0.512180469'
aS'0.5125035281'
aS'0.512740442'
aS'0.5128307949'
aS'0.5128805615'
aS'0.5158009274'
aS'0.516682905'
aS'0.5167723057'
aS'0.5189038994'
aS'0.5191724805'
aS'0.5193084344'
aS'0.5196814971'
aS'0.5200708537'
aS'0.5201098778'
aS'0.520125035'
aS'0.520536152'
aS'0.5211835731'
aS'0.5218167428'
aS'0.5237478729'
aS'0.523848674'
aS'0.5239518881'
aS'0.5255381882'
aS'0.5258016287'
aS'0.5260120969'
aS'0.5265030667'
aS'0.5273481428'
aS'0.5280175491'
aS'0.5281762064'
aS'0.5286740436'
aS'0.5293455522'
aS'0.5298739458'
aS'0.5308684617'
aS'0.5314460008'
aS'0.5326930233'
aS'0.5327034228'
aS'0.5327984273'
aS'0.5332084582'
aS'0.533605878'
aS'0.5338479644'
aS'0.534580313'
aS'0.5349862023'
aS'0.5350597023'
aS'0.5351887475'
aS'0.5351901898'
aS'0.5352411238'
aS'0.5359280542'
aS'0.5365498793'
aS'0.5366924937'
aS'0.5367983378'
aS'0.5368981673'
aS'0.5369968609'
aS'0.5370690487'
aS'0.5387420604'
aS'0.5394317294'
aS'0.5394421442'
aS'0.539984234'
aS'0.5405122011'
aS'0.5406260443'
aS'0.5408851014'
aS'0.5412645321'
aS'0.541602863'
aS'0.5418385217'
aS'0.5420928792'
aS'0.5425406204'
aS'0.5437068613'
aS'0.5438021995'
aS'0.5444569681'
aS'0.5445510755'
aS'0.544657791'
aS'0.5446959931'
aS'0.5450362715'
aS'0.5451887949'
aS'0.5453685446'
aS'0.5455444134'
aS'0.5458618225'
aS'0.5459127675'
aS'0.5459887877'
aS'0.5459897637'
aS'0.5464411997'
aS'0.5467221254'
aS'0.5467601632'
aS'0.547869063'
aS'0.5490661593'
aS'0.5503973671'
aS'0.5508924569'
aS'0.551365575'
aS'0.551370396'
aS'0.5516252824'
aS'0.5521281728'
aS'0.5527482878'
aS'0.5530636925'
aS'0.5531460688'
aS'0.5533259313'
aS'0.553592319'
aS'0.5536589202'
aS'0.5538986696'
aS'0.554585525'
aS'0.555608609'
aS'0.5562340669'
aS'0.5563713519'
aS'0.5569920791'
aS'0.5573200732'
aS'0.5573984519'
aS'0.5583054361'
aS'0.5584386205'
aS'0.55844295'
aS'0.5595882563'
aS'0.5597389868'
aS'0.5600545902'
aS'0.5605210432'
aS'0.5605266604'
aS'0.5611204325'
aS'0.5613014563'
aS'0.562152369'
aS'0.5622440141'
aS'0.5629480693'
aS'0.5630077853'
aS'0.5635915259'
aS'0.5640117838'
aS'0.5651603712'
aS'0.5655112541'
aS'0.566586659'
aS'0.5679363477'
aS'0.5679419474'
aS'0.5679888805'
aS'0.5681379127'
aS'0.5688519429'
aS'0.5705229959'
aS'0.5712754958'
aS'0.5719722132'
aS'0.572105474'
aS'0.5735225291'
aS'0.5739093145'
aS'0.5747468728'
aS'0.5748786422'
aS'0.5749111512'
aS'0.5758044188'
aS'0.5773629664'
aS'0.5775668839'
aS'0.5777790402'
aS'0.5778231267'
aS'0.5779213294'
aS'0.5782325105'
aS'0.5783211434'
aS'0.5789268166'
aS'0.579293185'
aS'0.5793009842'
aS'0.5798457671'
aS'0.5801071627'
aS'0.581389054'
aS'0.5814072275'
aS'0.5814742189'
aS'0.5822686059'
aS'0.5825303228'
aS'0.5834365906'
aS'0.5839392833'
aS'0.584384556'
aS'0.5855487271'
aS'0.5857536473'
aS'0.5862284998'
aS'0.5871928102'
aS'0.587196952'
aS'0.5874158902'
aS'0.5883742697'
aS'0.5890166991'
aS'0.5890762197'
aS'0.5903141383'
aS'0.5907957065'
aS'0.5911336126'
aS'0.591714316'
aS'0.5918281385'
aS'0.5918448598'
aS'0.5925693679'
aS'0.5952855306'
aS'0.595313255'
aS'0.5956446068'
aS'0.5970441599'
aS'0.5972170627'
aS'0.5976595213'
aS'0.5977379224'
aS'0.597841456'
aS'0.5990128445'
aS'0.5995934635'
aS'0.600042231'
aS'0.6006222587'
aS'0.6011603274'
aS'0.6018084362'
aS'0.6027921253'
aS'0.603545735'
aS'0.6036635851'
aS'0.6050151706'
aS'0.6051644369'
aS'0.6057346907'
aS'0.6057804264'
aS'0.606227166'
aS'0.6063080709'
aS'0.6064378848'
aS'0.6068727457'
aS'0.6073200132'
aS'0.6075332033'
aS'0.6078477442'
aS'0.6089431117'
aS'0.6104251881'
aS'0.6105271643'
aS'0.6114028185'
aS'0.6121280839'
aS'0.6123732458'
aS'0.612698049'
aS'0.6129298266'
aS'0.6131557603'
aS'0.6136320667'
aS'0.6138411863'
aS'0.6142029327'
aS'0.6143748746'
aS'0.6147352413'
aS'0.6147468989'
aS'0.6151060207'
aS'0.6162909362'
aS'0.6174070243'
aS'0.6177037354'
aS'0.6190175755'
aS'0.6196305053'
aS'0.6201747203'
aS'0.6210070138'
aS'0.6210541788'
aS'0.6210751605'
aS'0.6211965088'
aS'0.6212724538'
aS'0.6218858851'
aS'0.6223607211'
aS'0.622428248'
aS'0.6226964795'
aS'0.6236213155'
aS'0.6237869228'
aS'0.6241433888'
aS'0.6250811347'
aS'0.6251689292'
aS'0.6254080021'
aS'0.6256102923'
aS'0.6260029482'
aS'0.6266054134'
aS'0.626964495'
aS'0.6271217956'
aS'0.6273077207'
aS'0.6276988033'
aS'0.628414216'
aS'0.6290273433'
aS'0.6292442444'
aS'0.6298711917'
aS'0.6302305861'
aS'0.6307957041'
aS'0.6311496117'
aS'0.631628848'
aS'0.6317277201'
aS'0.6317566082'
aS'0.6317984295'
aS'0.633829922'
aS'0.6345952291'
aS'0.6346227705'
aS'0.6348652377'
aS'0.6350947555'
aS'0.6352763396'
aS'0.6357699451'
aS'0.6357702679'
aS'0.6361119061'
aS'0.6374580097'
aS'0.6387511707'
aS'0.6394736084'
aS'0.6399675413'
aS'0.6422814854'
aS'0.6430315886'
aS'0.6437247863'
aS'0.6442424016'
aS'0.6445266321'
aS'0.6450228612'
aS'0.6452899917'
aS'0.6454782917'
aS'0.6456564201'
aS'0.6461125101'
aS'0.6461282733'
aS'0.6461736524'
aS'0.6468092335'
aS'0.6469316967'
aS'0.6474995272'
aS'0.6482487378'
aS'0.6486335137'
aS'0.648754335'
aS'0.6494762188'
aS'0.6503617745'
aS'0.6503664119'
aS'0.6507894223'
aS'0.6525336332'
aS'0.6540148606'
aS'0.6546286103'
aS'0.6550347213'
aS'0.6550387176'
aS'0.6552111244'
aS'0.655816884'
aS'0.6566380387'
aS'0.6566596457'
aS'0.657818004'
aS'0.6579547999'
aS'0.6579558241'
aS'0.658871354'
aS'0.6597358017'
aS'0.6601024124'
aS'0.6601665807'
aS'0.6603158104'
aS'0.660470467'
aS'0.6611220025'
aS'0.6611822883'
aS'0.6612962557'
aS'0.6640900657'
aS'0.6642789685'
aS'0.6649197792'
aS'0.6650367129'
aS'0.6653815424'
aS'0.6653956092'
aS'0.6666398041'
aS'0.6677381228'
aS'0.667977349'
aS'0.6684027044'
aS'0.6697907975'
aS'0.6751057591'
aS'0.6779703523'
aS'0.6806032324'
aS'0.6845519956'
aS'0.6846325534'
aS'0.6859004025'
aS'0.6860149967'
aS'0.6864544697'
aS'0.6866599782'
aS'0.6882441776'
aS'0.6893658662'
aS'0.6899415401'
aS'0.6915310517'
aS'0.6919665992'
aS'0.6925113731'
aS'0.6926418424'
aS'0.6929289108'
aS'0.6945629905'
aS'0.6947957915'
aS'0.6952659908'
aS'0.6953458379'
aS'0.6977830688'
aS'0.6987062745'
aS'0.6993663698'
aS'0.699620389'
aS'0.7019244545'
aS'0.703416075'
aS'0.7036949578'
aS'0.7042365605'
aS'0.7054586277'
aS'0.7067097537'
aS'0.7072122492'
aS'0.7075456692'
aS'0.7080387145'
aS'0.7091194953'
aS'0.7103998799'
aS'0.7115999582'
aS'0.7126522574'
aS'0.713361659'
aS'0.7144106635'
aS'0.7150936467'
aS'0.7154021648'
aS'0.715881292'
aS'0.7186105998'
aS'0.718703918'
aS'0.7201342415'
aS'0.7207665569'
aS'0.7209652645'
aS'0.7215584229'
aS'0.7217448142'
aS'0.7223554245'
aS'0.7228814991'
aS'0.7233184442'
aS'0.7234158927'
aS'0.7242538848'
aS'0.7260897684'
aS'0.7276618578'
aS'0.7277764502'
aS'0.7294417325'
aS'0.7303023121'
aS'0.7323764779'
aS'0.7349690189'
aS'0.736277167'
aS'0.7371652528'
aS'0.7395462346'
aS'0.7407252022'
aS'0.7426037106'
aS'0.7431216962'
aS'0.7434915937'
aS'0.7438628632'
aS'0.7445744244'
aS'0.7446552055'
aS'0.7453778421'
aS'0.7456693663'
aS'0.7460438332'
aS'0.7469830872'
aS'0.7482136407'
aS'0.7485368373'
aS'0.74930976'
aS'0.7501648755'
aS'0.7517841668'
aS'0.7552493236'
aS'0.7585640906'
aS'0.759501968'
aS'0.760097263'
aS'0.7622124154'
aS'0.7631645623'
aS'0.7636301445'
aS'0.7636686158'
aS'0.7637302915'
aS'0.7644276213'
aS'0.7671736717'
aS'0.7694120881'
aS'0.7707781866'
aS'0.771849737'
aS'0.7729705866'
aS'0.7730809049'
aS'0.7735987602'
aS'0.7745189443'
aS'0.7745901064'
aS'0.7751901537'
aS'0.775317251'
aS'0.7755483305'
aS'0.7772819513'
aS'0.7775204565'
aS'0.7787004927'
aS'0.7787721161'
aS'0.7844431245'
aS'0.7845088206'
aS'0.7854850015'
aS'0.7866485962'
aS'0.7867011426'
aS'0.7868654038'
aS'0.7902385494'
aS'0.7940698132'
aS'0.7965920964'
aS'0.7966635611'
aS'0.7968814346'
aS'0.7996453531'
aS'0.7997036396'
aS'0.7998493732'
aS'0.8027637895'
aS'0.8046490042'
aS'0.8099038326'
aS'0.8100384709'
aS'0.8104385312'
aS'0.8111940481'
aS'0.8147704924'
aS'0.8148893924'
aS'0.8157960405'
aS'0.8171907488'
aS'0.8189744759'
aS'0.8190324071'
aS'0.8227188513'
aS'0.8275333848'
aS'0.831365252'
aS'0.8319480887'
aS'0.8328578459'
aS'0.8364402161'
aS'0.837826194'
aS'0.8382763474'
aS'0.8385746403'
aS'0.8403894216'
aS'0.8474082108'
aS'0.8480129157'
aS'0.8511763819'
aS'0.8529788346'
aS'0.8551739873'
aS'0.857551761'
aS'0.8583527686'
aS'0.8633171896'
aS'0.8683225597'
aS'0.8683231537'
aS'0.8687805142'
aS'0.8717505882'
aS'0.8732363405'
aS'0.8742914553'
aS'0.8768125277'
aS'0.879297145'
aS'0.8996938629'
aS'0.9043846628'
aS'0.9170168201'
aS'0.9217831574'
aS'0.9405412017'
aS'0.9627007147'
aS'0.9672368821'
aS'0.967414071'
aS'0.9693305243'
aS'0.9875762717'
aS'1'
a(dbsS'attributes'
p57
(dp58
sg22
I-4
sg23
I-1
stRp59
(dp60
g26
Nsbs(dtRp61
(dbS'svm_type c_svc\nkernel_type linear\nnr_class 2\ntotal_sv 53\nrho -8.0471282939370177\nlabel 0 1\nprobA -0.84411251731114501\nprobB 0.10661012953060794\nnr_sv 26 27\nSV\n0.03125 1:50 2:895 3:437 \n0.03125 1:61 2:597 3:703 \n0.03125 1:71 2:731 3:622 \n0.03125 1:109 2:931 3:268 \n0.03125 1:110 2:259 3:889 \n0.03125 1:171 2:871 3:230 \n0.023177863269207431 1:219 2:448 3:585 \n0.03125 1:230 2:509 3:597 \n0.03125 1:334 2:378 3:677 \n0.03125 1:379 2:158 3:830 \n0.03125 1:394 2:427 3:579 \n0.03125 1:475 2:592 3:263 \n0.03125 1:488 2:661 3:138 \n0.03125 1:495 2:458 3:345 \n0.03125 1:525 2:284 3:624 \n0.03125 1:545 2:688 3:100 \n0.03125 1:579 2:128 3:667 \n0.03125 1:595 2:524 3:246 \n0.03125 1:680 2:503 3:129 \n0.03125 1:733 2:483 3:180 \n0.03125 1:799 2:533 3:141 \n0.03125 1:805 2:332 3:197 \n0.03125 1:831 2:492 3:132 \n0.03125 1:877 2:70 3:627 \n0.03125 1:893 2:425 3:175 \n0.03125 1:974 2:104 3:303 \n-0.03125 1:5 2:13 3:12 \n-0.03125 1:10 2:5 3:14 \n-0.03125 1:15 2:16 3:4 \n-0.026066239942244444 1:32 2:840 3:717 \n-0.03125 1:162 2:848 3:515 \n-0.03125 1:246 2:571 3:638 \n-0.03125 1:298 2:820 3:335 \n-0.03125 1:305 2:363 3:857 \n-0.03125 1:332 2:686 3:457 \n-0.03125 1:382 2:155 3:989 \n-0.03125 1:402 2:534 3:613 \n-0.03125 1:424 2:459 3:691 \n-0.03125 1:447 2:174 3:978 \n-0.03125 1:507 2:712 3:286 \n-0.03125 1:528 2:884 3:70 \n-0.03125 1:543 2:587 3:498 \n-0.03125 1:564 2:273 3:695 \n-0.03125 1:566 2:795 3:155 \n-0.0067629110080437184 1:629 2:35 3:965 \n-0.03125 1:689 2:497 3:330 \n-0.021598712318918092 1:726 2:676 3:252 \n-0.03125 1:753 2:609 3:284 \n-0.03125 1:765 2:350 3:444 \n-0.03125 1:896 2:445 3:269 \n-0.03125 1:899 2:330 3:325 \n-0.03125 1:967 2:636 3:35 \n-0.03125 1:996 2:428 3:58 \n'
cOrange.orange
__pickleLoaderExampleTable
p62
(cOrange.data
Table
p63
g61
S'5\x00\x00\x00@2\x80\x7f\x03\x80\xb5\x01@\x00\x01\x00\x00\x00\x9b&\x00\x00\x00\x00\x00\x00\xf9\xff\xff\xff\x01\x80\xcb\x01@=\x80U\x02\x80\xbf\x02@\x00\x01\x00\x00\x00\x91\'\x00\x00\x00\x00\x00\x00\xf9\xff\xff\xff\x01\x80\x99\x01@G\x80\xdb\x02\x80n\x02@\x00\x01\x00\x00\x00\x89&\x00\x00\x00\x00\x00\x00\xf9\xff\xff\xff\x01\x80\xcf\x01@m\x80\xa3\x03\x80\x0c\x01@\x00\x01\x00\x00\x00I%\x00\x00\x00\x00\x00\x00\xf9\xff\xff\xff\x01\x80\xc3\x01@n\x80\x03\x01\x80y\x03@\x00\x01\x00\x00\x00\xe8$\x00\x00\x00\x00\x00\x00\xf9\xff\xff\xff\x01\x80U\x01@\xab\x80g\x03@\xe6@\x00\x01\x00\x00\x00\xd5\'\x00\x00\x00\x00\x00\x00\xf9\xff\xff\xff\x01\x80\xa1\x01@\xdb\x80\xc0\x01\x80I\x02@\x00\x01\x00\x00\x00\x8f&\x00\x00\x00\x00\x00\x00\xf9\xff\xff\xff\x01\x80b\x01@\xe6\x80\xfd\x01\x80U\x02@\x00\x01\x00\x00\x00y(\x00\x00\x00\x00\x00\x00\xf9\xff\xff\xff\x01\x80\xab\x01\x80N\x01\x80z\x01\x80\xa5\x02@\x00\x01\x00\x00\x00\xb2&\x00\x00\x00\x00\x00\x00\xf9\xff\xff\xff\x01\x80\xc1\x01\x80{\x01@\x9e\x80>\x03@\x00\x01\x00\x00\x00\x82\'\x00\x00\x00\x00\x00\x00\xf9\xff\xff\xff\x01\x80\x8d\x01\x80\x8a\x01\x80\xab\x01\x80C\x02@\x00\x01\x00\x00\x004%\x00\x00\x00\x00\x00\x00\xf9\xff\xff\xff\x01\x80\xba\x01\x80\xdb\x01\x80P\x02\x80\x07\x01@\x00\x01\x00\x00\x00e%\x00\x00\x00\x00\x00\x00\xf9\xff\xff\xff\x01\x80\x9e\x01\x80\xe8\x01\x80\x95\x02@\x8a@\x00\x01\x00\x00\x00\xa0\'\x00\x00\x00\x00\x00\x00\xf9\xff\xff\xff\x01\x80f\x01\x80\xef\x01\x80\xca\x01\x80Y\x01@\x00\x01\x00\x00\x00p(\x00\x00\x00\x00\x00\x00\xf9\xff\xff\xff\x01\x80~\x01\x80\r\x02\x80\x1c\x01\x80p\x02@\x00\x01\x00\x00\x00=&\x00\x00\x00\x00\x00\x00\xf9\xff\xff\xff\x01\x80\xb2\x01\x80!\x02\x80\xb0\x02@d@\x00\x01\x00\x00\x00\xa1%\x00\x00\x00\x00\x00\x00\xf9\xff\xff\xff\x01\x80w\x01\x80C\x02@\x80\x80\x9b\x02@\x00\x01\x00\x00\x00\xb7%\x00\x00\x00\x00\x00\x00\xf9\xff\xff\xff\x01\x80c\x01\x80S\x02\x80\x0c\x02@\xf6@\x00\x01\x00\x00\x00k&\x00\x00\x00\x00\x00\x00\xf9\xff\xff\xff\x01\x80\x9c\x01\x80\xa8\x02\x80\xf7\x01@\x81@\x00\x01\x00\x00\x00\xf5\'\x00\x00\x00\x00\x00\x00\xf9\xff\xff\xff\x01\x80J\x01\x80\xdd\x02\x80\xe3\x01@\xb4@\x00\x01\x00\x00\x00N(\x00\x00\x00\x00\x00\x00\xf9\xff\xff\xff\x01\x80\x83\x01\x80\x1f\x03\x80\x15\x02@\x8d@\x00\x01\x00\x00\x00>\'\x00\x00\x00\x00\x00\x00\xf9\xff\xff\xff\x01\x80\xb3\x01\x80%\x03\x80L\x01@\xc5@\x00\x01\x00\x00\x00\xe8%\x00\x00\x00\x00\x00\x00\xf9\xff\xff\xff\x01\x80G\x01\x80?\x03\x80\xec\x01@\x84@\x00\x01\x00\x00\x00R&\x00\x00\x00\x00\x00\x00\xf9\xff\xff\xff\x01\x80\xa7\x01\x80m\x03@F\x80s\x02@\x00\x01\x00\x00\x00\x1b&\x00\x00\x00\x00\x00\x00\xf9\xff\xff\xff\x01\x80\xd2\x01\x80}\x03\x80\xa9\x01@\xaf@\x00\x01\x00\x00\x00\xa3\'\x00\x00\x00\x00\x00\x00\xf9\xff\xff\xff\x01\x80\xc2\x01\x80\xce\x03@h\x80/\x01@\x00\x01\x00\x00\x00\x96\'\x00\x00\x00\x00\x00\x00\xf9\xff\xff\xff\x01\x80\x96\x01@\x05@\r@\x0c@\x01\x01\x00\x00\x00\xa5$\x00\x00\x00\x00\x00\x00\xf9\xff\xff\xff\x01@\t@\n@\x05@\x0e@\x01\x01\x00\x00\x00\xa6$\x00\x00\x00\x00\x00\x00\xf9\xff\xff\xff\x01@\x0c@\x0f@\x10@\x04@\x01\x01\x00\x00\x00\xac$\x00\x00\x00\x00\x00\x00\xf9\xff\xff\xff\x01@\x10@ \x80H\x03\x80\xcd\x02@\x01\x01\x00\x00\x00\xca$\x00\x00\x00\x00\x00\x00\xf9\xff\xff\xff\x01\x80&\x02@\xa2\x80P\x03\x80\x03\x02@\x01\x01\x00\x00\x00z&\x00\x00\x00\x00\x00\x00\xf9\xff\xff\xff\x01\x80=\x02@\xf6\x80;\x02\x80~\x02@\x01\x01\x00\x00\x00#(\x00\x00\x00\x00\x00\x00\xf9\xff\xff\xff\x01\x80\xff\x01\x80*\x01\x804\x03\x80O\x01@\x01\x01\x00\x00\x00\x93&\x00\x00\x00\x00\x00\x00\xf9\xff\xff\xff\x01\x80"\x02\x801\x01\x80k\x01\x80Y\x03@\x01\x01\x00\x00\x00\x06%\x00\x00\x00\x00\x00\x00\xf9\xff\xff\xff\x01\x80\x1b\x02\x80L\x01\x80\xae\x02\x80\xc9\x01@\x01\x01\x00\x00\x00\xe2&\x00\x00\x00\x00\x00\x00\xf9\xff\xff\xff\x01\x80\x14\x02\x80~\x01@\x9b\x80\xdd\x03@\x01\x01\x00\x00\x00\xda$\x00\x00\x00\x00\x00\x00\xf9\xff\xff\xff\x01\x80\x03\x02\x80\x92\x01\x80\x16\x02\x80e\x02@\x01\x01\x00\x00\x00\n(\x00\x00\x00\x00\x00\x00\xf9\xff\xff\xff\x01\x80$\x02\x80\xa8\x01\x80\xcb\x01\x80\xb3\x02@\x01\x01\x00\x00\x00\xed\'\x00\x00\x00\x00\x00\x00\xf9\xff\xff\xff\x01\x80/\x02\x80\xbf\x01@\xae\x80\xd2\x03@\x01\x01\x00\x00\x00\xb1\'\x00\x00\x00\x00\x00\x00\xf9\xff\xff\xff\x01\x809\x02\x80\xfb\x01\x80\xc8\x02\x80\x1e\x01@\x01\x01\x00\x00\x00\xc6%\x00\x00\x00\x00\x00\x00\xf9\xff\xff\xff\x01\x80\x08\x02\x80\x10\x02\x80t\x03@F@\x01\x01\x00\x00\x00\xa8%\x00\x00\x00\x00\x00\x00\xf9\xff\xff\xff\x01\x80\xee\x01\x80\x1f\x02\x80K\x02\x80\xf2\x01@\x01\x01\x00\x00\x00E(\x00\x00\x00\x00\x00\x00\xf9\xff\xff\xff\x01\x80Q\x02\x804\x02\x80\x11\x01\x80\xb7\x02@\x01\x01\x00\x00\x00`\'\x00\x00\x00\x00\x00\x00\xf9\xff\xff\xff\x01\x80\xea\x01\x806\x02\x80\x1b\x03@\x9b@\x01\x01\x00\x00\x00\xa9%\x00\x00\x00\x00\x00\x00\xf9\xff\xff\xff\x01\x80\xfa\x01\x80u\x02@#\x80\xc5\x03@\x01\x01\x00\x00\x00\x0e\'\x00\x00\x00\x00\x00\x00\xf9\xff\xff\xff\x01\x80\x02\x02\x80\xb1\x02\x80\xf1\x01\x80J\x01@\x01\x01\x00\x00\x00\x8b%\x00\x00\x00\x00\x00\x00\xf9\xff\xff\xff\x01\x80\xf3\x01\x80\xd6\x02\x80\xa4\x02@\xfc@\x01\x01\x00\x00\x00\xe3%\x00\x00\x00\x00\x00\x00\xf9\xff\xff\xff\x01\x80U\x02\x80\xf1\x02\x80a\x02\x80\x1c\x01@\x01\x01\x00\x00\x00\xee\'\x00\x00\x00\x00\x00\x00\xf9\xff\xff\xff\x01\x80?\x02\x80\xfd\x02\x80^\x01\x80\xbc\x01@\x01\x01\x00\x00\x00\xde$\x00\x00\x00\x00\x00\x00\xf9\xff\xff\xff\x01\x80\xed\x01\x80\x80\x03\x80\xbd\x01\x80\r\x01@\x01\x01\x00\x00\x001&\x00\x00\x00\x00\x00\x00\xf9\xff\xff\xff\x01\x80\x1d\x02\x80\x83\x03\x80J\x01\x80E\x01@\x01\x01\x00\x00\x00\x1e%\x00\x00\x00\x00\x00\x00\xf9\xff\xff\xff\x01\x80\xf1\x01\x80\xc7\x03\x80|\x02@#@\x01\x01\x00\x00\x00\xb6&\x00\x00\x00\x00\x00\x00\xf9\xff\xff\xff\x01\x80[\x02\x80\xe4\x03\x80\xac\x01@:@\x01\x01\x00\x00\x00\x1d(\x00\x00\x00\x00\x00\x00\xf9\xff\xff\xff\x01\x80\xef\x01'
NtRp64
(dp65
S'domain'
p66
g61
sg15
NsbNNtRp67
(dp68
S'kernel_type'
p69
I0
sg66
g61
sS'kernel_func'
p70
NsS'computes_probabilities'
p71
I1
sS'n_SV'
p72
cOrange.core
IntList
p73
(tRp74
I26
aI27
a(dbsS'coef'
p75
cOrange.core
FloatListList
p76
(tRp77
cOrange.core
FloatList
p78
(tRp79
F0.03125
aF0.03125
aF0.03125
aF0.03125
aF0.03125
aF0.03125
aF0.023177864030003548
aF0.03125
aF0.03125
aF0.03125
aF0.03125
aF0.03125
aF0.03125
aF0.03125
aF0.03125
aF0.03125
aF0.03125
aF0.03125
aF0.03125
aF0.03125
aF0.03125
aF0.03125
aF0.03125
aF0.03125
aF0.03125
aF0.03125
aF-0.03125
aF-0.03125
aF-0.03125
aF-0.026066239923238754
aF-0.03125
aF-0.03125
aF-0.03125
aF-0.03125
aF-0.03125
aF-0.03125
aF-0.03125
aF-0.03125
aF-0.03125
aF-0.03125
aF-0.03125
aF-0.03125
aF-0.03125
aF-0.03125
aF-0.0067629110999405384
aF-0.03125
aF-0.021598711609840393
aF-0.03125
aF-0.03125
aF-0.03125
aF-0.03125
aF-0.03125
aF-0.03125
a(dba(dbsS'support_vectors'
p80
g64
sS'svm_type'
p81
I0
sS'class_var'
p82
g49
sS'examples'
p83
NsS'rho'
p84
g78
(tRp85
F-8.0471286773681641
a(dbsS'prob_b'
p86
g78
(tRp87
F0.10661012679338455
a(dbsS'prob_a'
p88
g78
(tRp89
F-0.84411251544952393
a(dbsbtRp90
(dp91
S'_SVMClassifier__wrapped'
p92
g67
sS'name'
p93
S'SVM'
p94
sb.